(lp0
S'#UNK#'
p1
aS'#START#'
p2
aS'#END#'
p3
aVwoods
p4
aVhanging
p5
aVwoody
p6
aVcomically
p7
aVcanes
p8
aVbringing
p9
aVwooded
p10
aVbroiler
p11
aVwooden
p12
aVbroiled
p13
aVcrotch
p14
aVsnuggles
p15
aVscraper
p16
aVbannister
p17
aVsnuggled
p18
aVcooking
p19
aVnumeral
p20
aVcrouch
p21
aVchina
p22
aVkids
p23
aVclimbed
p24
aVtalbe
p25
aVclimber
p26
aVgolden
p27
aVprojection
p28
aVstern
p29
aVmusic
p30
aVschoolboys
p31
aVcopse
p32
aVlocked
p33
aVlocker
p34
aVwand
p35
aVwant
p36
aVpinto
p37
aVtravel
p38
aVbarstools
p39
aVdinosaurs
p40
aVwrong
p41
aVcolorfully
p42
aVtulip
p43
aVconcoction
p44
aVfir
p45
aVmajestically
p46
aVscreaming
p47
aVfix
p48
aVbulding
p49
aVfin
p50
aVeffects
p51
aVsixteen
p52
aVarrow
p53
aVwindmill
p54
aVtelescope
p55
aVgrapefruits
p56
aVtupperware
p57
aVsmirk
p58
aVmason
p59
aVsize
p60
aVpumpkins
p61
aVcompetes
p62
aVkfc
p63
aVrenovated
p64
aVservice
p65
aVreuben
p66
aVneeded
p67
aVmaster
p68
aVidly
p69
aVidle
p70
aVfeeling
p71
aVdozen
p72
aVracers
p73
aVmouth
p74
aVsinger
p75
aVtech
p76
aVscream
p77
aVsaying
p78
aVteresa
p79
aVpadded
p80
aVthai
p81
aVflowers
p82
aVrich
p83
aVrice
p84
aVplate
p85
aVumbilical
p86
aVnicely
p87
aVboarder
p88
aVpretzel
p89
aVpatch
p90
aVboarded
p91
aValternative
p92
aVlots
p93
aVcordoned
p94
aVextend
p95
aVnature
p96
aVwheelbarrow
p97
aVheating
p98
aVincense
p99
aVlevitating
p100
aVblonde
p101
aVunion
p102
aVfro
p103
aVmuch
p104
aVfry
p105
aVtallest
p106
aVobese
p107
aVspit
p108
aVspin
p109
aVprofessionally
p110
aVk
p111
aVcanoeing
p112
aVeighteen
p113
aVconditioner
p114
aVhone
p115
aVmemorial
p116
aVhonk
p117
aVsplit
p118
aVboiled
p119
aVpetaled
p120
aVstillness
p121
aVgoofing
p122
aVcorporate
p123
aVplaque
p124
aVwaterboard
p125
aVlasso
p126
aVham
p127
aVhad
p128
aVhay
p129
aVduffel
p130
aVhas
p131
aVhat
p132
aVmunicipal
p133
aVelders
p134
aVclustered
p135
aVshadow
p136
aVcrowd
p137
aVcrown
p138
aVtopping
p139
aVcrows
p140
aVbillboard
p141
aVbottom
p142
aVtreadmill
p143
aVopponents
p144
aVbinder
p145
aVstarring
p146
aVbenches
p147
aVbenched
p148
aVmangos
p149
aVshoots
p150
aVfabric
p151
aValtitude
p152
aVgrasping
p153
aVavocados
p154
aVgrooms
p155
aVpeperoni
p156
aVcongratulations
p157
aVtelivision
p158
aVrippling
p159
aVpeson
p160
aVservings
p161
aVsmashed
p162
aVpassenger
p163
aVornaments
p164
aVmirror
p165
aVcalzones
p166
aVpaperwork
p167
aVtriangles
p168
aVcrowns
p169
aVpasadena
p170
aVrole
p171
aVroll
p172
aVpalms
p173
aVtransported
p174
aVintent
p175
aVsmelling
p176
aVwindsocks
p177
aVoverturned
p178
aVgown
p179
aVchilds
p180
aVchain
p181
aVchair
p182
aVcrates
p183
aVcrater
p184
aVmache
p185
aVballed
p186
aVflatbed
p187
aVchoice
p188
aVgloomy
p189
aVstays
p190
aVexact
p191
aVminute
p192
aVcooks
p193
aVminnie
p194
aVskewer
p195
aVmeadow
p196
aVtrails
p197
aVchopping
p198
aVshirts
p199
aVadorns
p200
aVheadset
p201
aVcelebrates
p202
aVclimbs
p203
aVaddress
p204
aVdusty
p205
aVqueue
p206
aVinquisitively
p207
aVworking
p208
aVtundra
p209
aVconsoles
p210
aVriders
p211
aVfollowing
p212
aVzippers
p213
aVadmired
p214
aVmirrors
p215
aVmailboxes
p216
aVparachute
p217
aVlocks
p218
aVadmires
p219
aVlistens
p220
aVfueled
p221
aVsurfing
p222
aVmango
p223
aVpulled
p224
aVblowup
p225
aVwebpage
p226
aVyears
p227
aVmilked
p228
aVsuspension
p229
aVapron
p230
aVdrilling
p231
aVsorted
p232
aVleather
p233
aVfisherman
p234
aVquarter
p235
aVretrieve
p236
aVreceipt
p237
aVframes
p238
aVsponsor
p239
aVentering
p240
aVsalads
p241
aVtroll
p242
aVseriously
p243
aVinternet
p244
aVcomplicated
p245
aVgrandma
p246
aVmodest
p247
aVpouches
p248
aVona
p249
aVone
p250
aVspokes
p251
aVont
p252
aVconcert
p253
aVshawl
p254
aVherds
p255
aVcrossroads
p256
aVwandering
p257
aVturned
p258
aVlocations
p259
aVjewels
p260
aVfashionable
p261
aVzoo
p262
aVprinter
p263
aVopposite
p264
aVspewing
p265
aVbuffet
p266
aVprinted
p267
aVaggressive
p268
aVguarded
p269
aVsuitcases
p270
aVtilting
p271
aVbalconies
p272
aVawaiting
p273
aVpimp
p274
aVtiki
p275
aVtortilla
p276
aVvision
p277
aVenjoys
p278
aVawards
p279
aVfit
p280
aVflipped
p281
aVs
p282
aVworkplace
p283
aVconcentrates
p284
aVgrooming
p285
aVwest
p286
aVwants
p287
aVformed
p288
aVphotos
p289
aVformer
p290
aVnewspaper
p291
aVsituation
p292
aVnecks
p293
aVengaged
p294
aVengages
p295
aVtechnology
p296
aVedged
p297
aVsingapore
p298
aVedges
p299
aVwired
p300
aVadvertisement
p301
aVsteamed
p302
aVbeing
p303
aVrecycled
p304
aVrover
p305
aVgrounded
p306
aVplumes
p307
aVsumo
p308
aVtraffic
p309
aVworld
p310
aVpostal
p311
aVshutter
p312
aVseating
p313
aVtvv
p314
aVtvs
p315
aVcellar
p316
aVdiving
p317
aVstagecoach
p318
aVprepared
p319
aVpelicans
p320
aVlively
p321
aVbubbly
p322
aVlounging
p323
aVsealed
p324
aVbubble
p325
aVforeheads
p326
aVwith
p327
aVpull
p328
aVrush
p329
aVrags
p330
aVdirty
p331
aVpulp
p332
aVrust
p333
aVwatches
p334
aVwatched
p335
aVcream
p336
aVyoga
p337
aVpuppy
p338
aVwaving
p339
aVtricky
p340
aVtricks
p341
aVdyed
p342
aVbeware
p343
aVceramic
p344
aVroadway
p345
aVprosciutto
p346
aVsmall
p347
aVpast
p348
aVdisplays
p349
aVpass
p350
aVcrosswalks
p351
aVclock
p352
aVfull
p353
aVhash
p354
aVdiapers
p355
aVportrays
p356
aVfrumpled
p357
aVcivilians
p358
aVexperience
p359
aVprior
p360
aVdepart
p361
aVadidas
p362
aVunrecognizable
p363
aVmore
p364
aVdoor
p365
aVcompany
p366
aVcorrected
p367
aVtested
p368
aVinstalling
p369
aVlearn
p370
aVknocked
p371
aVseagull
p372
aVscramble
p373
aVhuge
p374
aVrespective
p375
aVspeedboat
p376
aVhugs
p377
aVsprinkle
p378
aVintended
p379
aVfluffed
p380
aVresemble
p381
aVtwisting
p382
aVovercooked
p383
aVtrellis
p384
aVwooly
p385
aVinstalled
p386
aVstylus
p387
aVpaper
p388
aVscott
p389
aVsigns
p390
aVsmiling
p391
aVschoolhouse
p392
aVroots
p393
aVhounds
p394
aVsauce
p395
aVcolleague
p396
aVgadget
p397
aVfrisbe
p398
aVfrisby
p399
aVfrizzy
p400
aVweeds
p401
aVweedy
p402
aVcourses
p403
aVpiping
p404
aVchipping
p405
aVbrunette
p406
aVoperation
p407
aVlipstick
p408
aVscoops
p409
aVcalzone
p410
aVmasted
p411
aVoutfitted
p412
aVplowing
p413
aVpairs
p414
aVbenedict
p415
aVmoderately
p416
aVsaint
p417
aVeasel
p418
aVinterviewed
p419
aVburrito
p420
aVlevels
p421
aVemirates
p422
aVguarding
p423
aVgraffiti
p424
aVblond
p425
aVsell
p426
aVself
p427
aValso
p428
aVdirtbike
p429
aVsometimes
p430
aVbarred
p431
aVbarren
p432
aVbarrel
p433
aVbulletin
p434
aVwording
p435
aVblended
p436
aVblender
p437
aVwraps
p438
aVstreetlights
p439
aVgooey
p440
aVremovable
p441
aVcolumns
p442
aVsunny
p443
aVcompass
p444
aVseperated
p445
aVcaramel
p446
aVtanker
p447
aVdelicately
p448
aVsips
p449
aVanalog
p450
aVproject
p451
aVsparsely
p452
aVuntouched
p453
aVlast
p454
aVconnection
p455
aVbell
p456
aViphones
p457
aVbelt
p458
aVsuburbs
p459
aVextravagant
p460
aVformations
p461
aVfrito
p462
aVawake
p463
aVpresses
p464
aVcaged
p465
aVadmire
p466
aVpressed
p467
aVcages
p468
aVreal
p469
aVmotors
p470
aVcuisine
p471
aVflooded
p472
aVinfamous
p473
aVclasped
p474
aVcheddar
p475
aVgoblet
p476
aVparents
p477
aVemergency
p478
aVcouple
p479
aVmarquee
p480
aVindividuals
p481
aVspins
p482
aVsundaes
p483
aVbouncy
p484
aVnovelty
p485
aVinserting
p486
aVobscures
p487
aVobscured
p488
aVwrinkles
p489
aVfrisbie
p490
aVbreasted
p491
aVcanning
p492
aVinto
p493
aVsightseeing
p494
aVspan
p495
aVharnessed
p496
aVtasting
p497
aVnails
p498
aVsock
p499
aVharnesses
p500
aVopens
p501
aVhawaiian
p502
aVatlantic
p503
aVpeepee
p504
aVfaded
p505
aVdiverse
p506
aVchat
p507
aVsurveying
p508
aVlufthansa
p509
aVlane
p510
aVland
p511
aVwafer
p512
aVyaks
p513
aVbeverage
p514
aVamish
p515
aVsplashing
p516
aVtotes
p517
aVwindowsill
p518
aVglows
p519
aVindicating
p520
aVdecorating
p521
aVsquirt
p522
aVharbor
p523
aVdisheveled
p524
aVcrook
p525
aVvideo
p526
aVboutonniere
p527
aVsweaty
p528
aVflowing
p529
aVfifteen
p530
aVsurvey
p531
aVderby
p532
aVmakes
p533
aVmaker
p534
aVnibbling
p535
aVnext
p536
aVeleven
p537
aVpencil
p538
aVbaby
p539
aVcentral
p540
aVcustomer
p541
aVscatter
p542
aVwedge
p543
aVprocess
p544
aVlock
p545
aVbillboards
p546
aVrode
p547
aVpromotional
p548
aVnears
p549
aVrods
p550
aVtightrope
p551
aVbilingual
p552
aVclasping
p553
aVchow
p554
aVlama
p555
aVrobot
p556
aVthigh
p557
aVspatula
p558
aVdirects
p559
aVperfect
p560
aVsnake
p561
aVgraffitid
p562
aVglassed
p563
aVscenic
p564
aVglasses
p565
aVbump
p566
aVbooks
p567
aVboutique
p568
aVchilli
p569
aVgallons
p570
aVcould
p571
aVchilly
p572
aVlength
p573
aVmotorbikes
p574
aVscene
p575
aVfestival
p576
aVenforcement
p577
aVstomach
p578
aVfalse
p579
aVtonight
p580
aVmountainous
p581
aVdishes
p582
aVdished
p583
aVpetals
p584
aVromaine
p585
aVbred
p586
aVthanksgiving
p587
aVwoolly
p588
aVgreenhouse
p589
aVtaps
p590
aVjar
p591
aVterminal
p592
aVjal
p593
aVjam
p594
aVtape
p595
aVriding
p596
aVmatress
p597
aVstyrofoam
p598
aVaer
p599
aVvying
p600
aVstuff
p601
aVrapped
p602
aVwrinkled
p603
aVframe
p604
aVskateboarding
p605
aVnuclear
p606
aVtented
p607
aVstaring
p608
aVdoorway
p609
aVfeather
p610
aVsunroof
p611
aVcommuter
p612
aVfielding
p613
aVstuffing
p614
aVdoeuvres
p615
aVtattoo
p616
aVcolts
p617
aVofa
p618
aVoff
p619
aVpatterns
p620
aVbarricades
p621
aVaudio
p622
aVnewest
p623
aVclocks
p624
aVweb
p625
aVwed
p626
aVwet
p627
aVvillagers
p628
aVtick
p629
aVpier
p630
aVpies
p631
aVbecome
p632
aVchoosing
p633
aVhissing
p634
aVhumming
p635
aVhipsters
p636
aVmementos
p637
aVsaucepan
p638
aVpomeranian
p639
aVpressure
p640
aVswimming
p641
aVletters
p642
aVbrownies
p643
aVbagged
p644
aVcondensation
p645
aVtossed
p646
aVplaces
p647
aVexcitement
p648
aVplaced
p649
aVtosses
p650
aVproblem
p651
aVnurses
p652
aVcompared
p653
aVdetails
p654
aVillusion
p655
aVponytail
p656
aVoutlets
p657
aVexposure
p658
aVsearches
p659
aVcompete
p660
aVgardens
p661
aVmagnetic
p662
aVnursery
p663
aVworth
p664
aVbarley
p665
aVnotifying
p666
aVpanda
p667
aVmachines
p668
aVcroutons
p669
aVprotection
p670
aVwatermelons
p671
aVapproaches
p672
aVlavatory
p673
aVbra
p674
aVplot
p675
aVplow
p676
aVsweater
p677
aVcoins
p678
aVbundles
p679
aVbundled
p680
aVseparated
p681
aVseparates
p682
aVblocking
p683
aVcuddle
p684
aVera
p685
aVelbow
p686
aVindicated
p687
aVindicates
p688
aVbasebal
p689
aVrecovery
p690
aVcarriers
p691
aVnuts
p692
aVladder
p693
aVhong
p694
aVarch
p695
aVpopsicle
p696
aVproduction
p697
aVcoffee
p698
aVsafe
p699
aVcollide
p700
aVsodas
p701
aVl
p702
aVdingy
p703
aVflyers
p704
aVfeeds
p705
aVdumping
p706
aVtrain
p707
aVsled
p708
aVslew
p709
aVtrainers
p710
aVbarrier
p711
aVleftovers
p712
aVancient
p713
aVfastening
p714
aVlollipop
p715
aVshrubbery
p716
aVbaseman
p717
aVsprig
p718
aVanother
p719
aVdisembark
p720
aVelectronic
p721
aVdoge
p722
aVelevator
p723
aVjohn
p724
aVdogs
p725
aVemblem
p726
aVcereal
p727
aVhistorical
p728
aVgiraffes
p729
aVportraits
p730
aVgiraffee
p731
aVcontents
p732
aVconvenient
p733
aVgravy
p734
aVdisembarking
p735
aVgermany
p736
aVgrave
p737
aVswamp
p738
aVbracket
p739
aVreserve
p740
aVlense
p741
aVpanned
p742
aVcashews
p743
aVrectangle
p744
aVcappuccino
p745
aVhangings
p746
aVskiiing
p747
aVroundabout
p748
aVruns
p749
aVscrubber
p750
aVemo
p751
aVemu
p752
aVgears
p753
aVzookeeper
p754
aVhairbrush
p755
aVtechniques
p756
aVpastel
p757
aVdraws
p758
aVsmoggy
p759
aVpasted
p760
aVaway
p761
aVsites
p762
aVdrawn
p763
aVshields
p764
aVhandful
p765
aVflashes
p766
aVkitchen
p767
aVclimate
p768
aVmodular
p769
aVtone
p770
aVtons
p771
aVattacked
p772
aVcylinder
p773
aVtissue
p774
aVcone
p775
aVconfection
p776
aVwheel
p777
aVcrockery
p778
aVhang
p779
aVhand
p780
aVtraffice
p781
aVon
p782
aVroosters
p783
aVmusical
p784
aVtrainer
p785
aVyamaha
p786
aVamoco
p787
aVlcd
p788
aVhairless
p789
aVcooler
p790
aVsparse
p791
aVnight
p792
aVborn
p793
aVconfusing
p794
aVcongratulate
p795
aVasking
p796
aVadorable
p797
aVpeek
p798
aVpeel
p799
aVarchitectural
p800
aVpeer
p801
aVpees
p802
aVpeep
p803
aVbreaded
p804
aVcandlesticks
p805
aVrendering
p806
aVneedles
p807
aVsailboats
p808
aVcaptive
p809
aVcoverings
p810
aVenthused
p811
aValertly
p812
aVbeds
p813
aVgutting
p814
aVconcept
p815
aVsilverware
p816
aVhorseback
p817
aVbattle
p818
aVlayers
p819
aVautomobiles
p820
aVturns
p821
aVgun
p822
aVgum
p823
aVguy
p824
aVcost
p825
aVshares
p826
aVpeels
p827
aVshared
p828
aVknickknacks
p829
aVteaches
p830
aVteacher
p831
aVsending
p832
aVbannanas
p833
aVbangs
p834
aVpillow
p835
aVmacintosh
p836
aVextra
p837
aVuphill
p838
aVpuffed
p839
aVfiremans
p840
aVintently
p841
aVcountertops
p842
aVskaters
p843
aVibm
p844
aVdecked
p845
aVdecker
p846
aVchip
p847
aVchin
p848
aVchic
p849
aVdiscussion
p850
aVspreads
p851
aVproduct
p852
aVproduce
p853
aVvases
p854
aVnoses
p855
aVbrussel
p856
aVcorona
p857
aVserving
p858
aVbarnyard
p859
aVended
p860
aVtablets
p861
aVbraid
p862
aVspacious
p863
aVtiara
p864
aVnon
p865
aVslacks
p866
aVnot
p867
aVgalloping
p868
aVdrop
p869
aVunloaded
p870
aVfurnishing
p871
aVstooping
p872
aVsoy
p873
aVyear
p874
aVmonitors
p875
aVtangled
p876
aVunbaked
p877
aVblind
p878
aVflipping
p879
aVrink
p880
aVrind
p881
aVring
p882
aVcaught
p883
aVkabob
p884
aVprofessionals
p885
aVlaunching
p886
aVovernight
p887
aVsnout
p888
aVequipment
p889
aVneatly
p890
aVamerica
p891
aVbreads
p892
aVsteady
p893
aVmrs
p894
aVscoreboard
p895
aVcanopies
p896
aVsnack
p897
aVstair
p898
aVstain
p899
aVinterstate
p900
aVduel
p901
aVstroll
p902
aVanchored
p903
aVactively
p904
aVjeans
p905
aVsledding
p906
aVtropical
p907
aVelvis
p908
aVskiers
p909
aVwinks
p910
aVcherub
p911
aVinflatable
p912
aVfigurines
p913
aVwaterway
p914
aVpillowcases
p915
aVsquatted
p916
aVarctic
p917
aVfoam
p918
aVtaxi
p919
aVlivestock
p920
aVbattleship
p921
aVneon
p922
aVfoot
p923
aVdeath
p924
aVswim
p925
aVpropped
p926
aVamd
p927
aVstunt
p928
aVbiathlon
p929
aVblackberry
p930
aVtwelve
p931
aVapartments
p932
aVassembly
p933
aVexciting
p934
aVbackup
p935
aVstare
p936
aVstart
p937
aVstars
p938
aVpitcher
p939
aVpitches
p940
aVomelet
p941
aVpitched
p942
aVembedded
p943
aVcabinets
p944
aVpoor
p945
aVpoop
p946
aVtreks
p947
aVpooh
p948
aVpool
p949
aVstudio
p950
aVmoonlight
p951
aVmonte
p952
aVsurboard
p953
aVreligious
p954
aVlocomotive
p955
aVstreets
p956
aVscallops
p957
aVtracks
p958
aVuneven
p959
aVdune
p960
aVarena
p961
aVinspired
p962
aVadvertising
p963
aVput
p964
aVconventional
p965
aValmost
p966
aVlowering
p967
aVpropellers
p968
aVproducing
p969
aVgrill
p970
aVcaption
p971
aVcommunicating
p972
aVhorizontal
p973
aVanytime
p974
aVchopsticks
p975
aVphotoshop
p976
aVremnants
p977
aVheron
p978
aVsystems
p979
aVevening
p980
aVtaxidermy
p981
aVcel
p982
aVpetted
p983
aVterrain
p984
aVstarbucks
p985
aVninja
p986
aVpredators
p987
aVfairy
p988
aVheavy
p989
aVmiss
p990
aVsafety
p991
aV7
p992
aVmittens
p993
aVhoused
p994
aVhouses
p995
aVdishwasher
p996
aVamerican
p997
aVpicnicking
p998
aVhorse
p999
aVstation
p1000
aVtrapped
p1001
aVipads
p1002
aVgrey
p1003
aVgren
p1004
aVtoward
p1005
aVteeshirt
p1006
aVcave
p1007
aVfailing
p1008
aVwallpapered
p1009
aVsturdy
p1010
aVrockefeller
p1011
aVtongs
p1012
aVtubes
p1013
aVkitcehn
p1014
aVporcupine
p1015
aVfeels
p1016
aVpretending
p1017
aVimitating
p1018
aVculture
p1019
aVclose
p1020
aVpictures
p1021
aVpictured
p1022
aVmissing
p1023
aVspray
p1024
aVzipper
p1025
aVhoisted
p1026
aVunfolded
p1027
aVcoleslaw
p1028
aVinstructing
p1029
aVempty
p1030
aVlived
p1031
aVlives
p1032
aVintriguing
p1033
aVpace
p1034
aVguide
p1035
aVpack
p1036
aVpetal
p1037
aVembroidered
p1038
aVmakeshift
p1039
aVgrand
p1040
aVcurbside
p1041
aVyoungsters
p1042
aVtechnicians
p1043
aVinformal
p1044
aVcherries
p1045
aVshowing
p1046
aVflamingo
p1047
aVvests
p1048
aVoncoming
p1049
aVpopular
p1050
aVlips
p1051
aVdilapidated
p1052
aVspouting
p1053
aVunbrella
p1054
aVassists
p1055
aVsmothered
p1056
aVhandbags
p1057
aVtofu
p1058
aVtaillights
p1059
aVcarnations
p1060
aVplacing
p1061
aVfettuccine
p1062
aVsick
p1063
aVsimilar
p1064
aVordered
p1065
aVumbrealla
p1066
aVamounts
p1067
aVapplication
p1068
aVdepartment
p1069
aVaprons
p1070
aVmanhattan
p1071
aVsmiles
p1072
aVsmiley
p1073
aVearphones
p1074
aVshrub
p1075
aVe
p1076
aVdvd
p1077
aVturbines
p1078
aVcompact
p1079
aVwindsurfer
p1080
aVfriendly
p1081
aVwave
p1082
aVwavy
p1083
aVtelling
p1084
aVsnowboards
p1085
aVpositions
p1086
aVmichael
p1087
aVwatered
p1088
aVpepper
p1089
aVjump
p1090
aVredone
p1091
aVpancake
p1092
aVsalvation
p1093
aVcamera
p1094
aVformally
p1095
aVcharming
p1096
aVlapse
p1097
aVmeet
p1098
aVlinks
p1099
aVpulling
p1100
aVpicturesque
p1101
aVbandana
p1102
aVembellished
p1103
aVfare
p1104
aVfarm
p1105
aVpeeling
p1106
aVronald
p1107
aVscoop
p1108
aVincluding
p1109
aVcostume
p1110
aVduring
p1111
aVwalnut
p1112
aVfrontal
p1113
aVbrocolli
p1114
aVuniversity
p1115
aVslide
p1116
aVankles
p1117
aVattachments
p1118
aVseparating
p1119
aVflys
p1120
aVentertainment
p1121
aVarmor
p1122
aVcause
p1123
aVdarkly
p1124
aVridge
p1125
aVtimey
p1126
aVtimer
p1127
aVtimes
p1128
aVairborn
p1129
aVpowerful
p1130
aVbitch
p1131
aVheadscarf
p1132
aVwrapper
p1133
aVwrapped
p1134
aVnewlywed
p1135
aVmountaintop
p1136
aVblades
p1137
aVgallery
p1138
aVcellphone
p1139
aVurn
p1140
aVottoman
p1141
aVunfinished
p1142
aVsheriff
p1143
aVtrucks
p1144
aVtuned
p1145
aVwidow
p1146
aVoperates
p1147
aVofficials
p1148
aVoperated
p1149
aVtend
p1150
aVtent
p1151
aVkicking
p1152
aVmerry
p1153
aVhits
p1154
aVsniff
p1155
aVlimits
p1156
aVstrains
p1157
aVpolka
p1158
aVtroopers
p1159
aVshoulders
p1160
aVcontrolled
p1161
aVcontroller
p1162
aVsmoking
p1163
aVtoothbrushes
p1164
aVtaupe
p1165
aVexamines
p1166
aVsurface
p1167
aVexamined
p1168
aVautism
p1169
aVparts
p1170
aVspeaker
p1171
aVparty
p1172
aVadvertises
p1173
aVoak
p1174
aVbatters
p1175
aVdistant
p1176
aVadvertised
p1177
aVparchment
p1178
aVemblems
p1179
aVriverside
p1180
aVballoons
p1181
aVoar
p1182
aVpropelled
p1183
aVbottoms
p1184
aVpropeller
p1185
aVintersection
p1186
aVlincoln
p1187
aVnecessary
p1188
aVlost
p1189
aVlose
p1190
aVclimbers
p1191
aVtrucked
p1192
aVglare
p1193
aVlibrary
p1194
aVtrucker
p1195
aVhome
p1196
aVsteaming
p1197
aVdemonstrates
p1198
aVgrinding
p1199
aVcradle
p1200
aVreaching
p1201
aVhurls
p1202
aVcontending
p1203
aVcocoa
p1204
aVadditional
p1205
aVnorth
p1206
aVtriangular
p1207
aVfountains
p1208
aVastro
p1209
aVstrawberries
p1210
aVgain
p1211
aVsprinkling
p1212
aVhighest
p1213
aVterritory
p1214
aVdisplay
p1215
aVmarketplace
p1216
aVuniversal
p1217
aVkisses
p1218
aVfunctions
p1219
aVingredients
p1220
aVfinch
p1221
aVstar
p1222
aVstay
p1223
aVfoil
p1224
aVstab
p1225
aVelse
p1226
aVamp
p1227
aVsamsung
p1228
aVknelt
p1229
aVconsists
p1230
aVbuddy
p1231
aVswan
p1232
aVswat
p1233
aVsorry
p1234
aVfists
p1235
aVvoid
p1236
aVcrops
p1237
aVsnowsuits
p1238
aVlikely
p1239
aVfoodstuffs
p1240
aVhelmets
p1241
aVniche
p1242
aVwakeboard
p1243
aVmen
p1244
aVdisposable
p1245
aVmet
p1246
aVmime
p1247
aVrafting
p1248
aVheeled
p1249
aVslicer
p1250
aVslices
p1251
aVsliced
p1252
aVguests
p1253
aVjackets
p1254
aVberlin
p1255
aVroom
p1256
aVtrots
p1257
aVroof
p1258
aVmovies
p1259
aVdividers
p1260
aVfoods
p1261
aVshelving
p1262
aVamazing
p1263
aVmanuals
p1264
aVthird
p1265
aVdescends
p1266
aVdefaced
p1267
aVcheckerboard
p1268
aVgoodbye
p1269
aVoperate
p1270
aVbudding
p1271
aVwindshield
p1272
aVbefore
p1273
aVpersonal
p1274
aVcrew
p1275
aVsprays
p1276
aVcombination
p1277
aVcaterpillar
p1278
aVglazed
p1279
aVventilation
p1280
aVducking
p1281
aVcalmly
p1282
aVaids
p1283
aVsking
p1284
aVmerchants
p1285
aVascending
p1286
aVhoodie
p1287
aVblinders
p1288
aVboarders
p1289
aVlettuce
p1290
aVfloors
p1291
aVhawks
p1292
aValmond
p1293
aVdigs
p1294
aVbegins
p1295
aVknights
p1296
aVpalace
p1297
aVginger
p1298
aVtells
p1299
aVstoplights
p1300
aVfitting
p1301
aVsleeper
p1302
aVllamas
p1303
aVumbella
p1304
aVgrins
p1305
aVobservation
p1306
aVcompetitors
p1307
aVcoup
p1308
aVliberty
p1309
aVcelery
p1310
aVappetizer
p1311
aVwatermelon
p1312
aVpallets
p1313
aVtraverses
p1314
aVgiraff
p1315
aVskat
p1316
aVlettering
p1317
aVartificial
p1318
aVwears
p1319
aVlotion
p1320
aVburies
p1321
aVlanterns
p1322
aVtint
p1323
aVtins
p1324
aVputs
p1325
aVpatrolling
p1326
aVparsley
p1327
aVtiny
p1328
aVting
p1329
aVinterest
p1330
aVbasic
p1331
aVbasil
p1332
aVbasin
p1333
aVlovely
p1334
aVhouseplants
p1335
aVluggage
p1336
aVugly
p1337
aVceilings
p1338
aVtoped
p1339
aVseven
p1340
aVcane
p1341
aVcant
p1342
aVcans
p1343
aVsever
p1344
aVshoveling
p1345
aVmeets
p1346
aVbearded
p1347
aVrenaissance
p1348
aVunicorn
p1349
aVyoure
p1350
aVwashbasin
p1351
aVfighters
p1352
aVyes
p1353
aVyet
p1354
aVskiier
p1355
aVroyal
p1356
aVcontestant
p1357
aVsave
p1358
aVtrimming
p1359
aVsailors
p1360
aVmargherita
p1361
aVhatchback
p1362
aVnude
p1363
aVkitesurfing
p1364
aVzombies
p1365
aVdeal
p1366
aVdead
p1367
aVplatters
p1368
aVvaulted
p1369
aVdear
p1370
aVcarts
p1371
aVskateboarded
p1372
aVmicrowave
p1373
aVskateboarder
p1374
aVoreo
p1375
aVmagazine
p1376
aVafternoon
p1377
aVsubs
p1378
aVselfie
p1379
aVcrochet
p1380
aVtennis
p1381
aVbatman
p1382
aVlanding
p1383
aVfeminine
p1384
aVwhiskey
p1385
aVtangerines
p1386
aVmuffins
p1387
aVmarking
p1388
aVleafless
p1389
aVholly
p1390
aVhandicap
p1391
aVutilities
p1392
aVjourney
p1393
aVjacked
p1394
aVhappening
p1395
aVjacket
p1396
aVmeander
p1397
aVrestored
p1398
aVsittiing
p1399
aVanticipation
p1400
aVfather
p1401
aVcongratulating
p1402
aVround
p1403
aVfillet
p1404
aVinternational
p1405
aVfilled
p1406
aVfrosting
p1407
aVbox
p1408
aVboy
p1409
aVcrayons
p1410
aVbot
p1411
aVboa
p1412
aVbob
p1413
aVbog
p1414
aVteenage
p1415
aVsweating
p1416
aVestate
p1417
aVstoops
p1418
aVvisit
p1419
aVvineyard
p1420
aVdrags
p1421
aVmaking
p1422
aVnearest
p1423
aVsample
p1424
aVwindowed
p1425
aVgourds
p1426
aVtablecloth
p1427
aVwaist
p1428
aVbasket
p1429
aVshoes
p1430
aVpolice
p1431
aVmonitor
p1432
aVlieing
p1433
aVinteresting
p1434
aVtucked
p1435
aVlunch
p1436
aVmarkings
p1437
aVshowcasing
p1438
aVelephants
p1439
aVfingertips
p1440
aVstitch
p1441
aVajar
p1442
aVcarnival
p1443
aVwaiter
p1444
aVfunky
p1445
aVjumping
p1446
aVfirst
p1447
aVspeaking
p1448
aVmeme
p1449
aVstreaked
p1450
aVcrevice
p1451
aVstrolls
p1452
aVlick
p1453
aVpastry
p1454
aVnazi
p1455
aVsquat
p1456
aVshocked
p1457
aVsquad
p1458
aVperformance
p1459
aVjungle
p1460
aVsheets
p1461
aVtugging
p1462
aVqueens
p1463
aVreef
p1464
aVdata
p1465
aVenthusiast
p1466
aVstormy
p1467
aVget
p1468
aVgee
p1469
aVuninstalled
p1470
aVblends
p1471
aVgel
p1472
aVmalaysian
p1473
aVmiles
p1474
aVflamingos
p1475
aVseas
p1476
aVseal
p1477
aVwonder
p1478
aVenough
p1479
aVacross
p1480
aVcoupons
p1481
aVsweatshirt
p1482
aVrestroom
p1483
aVtour
p1484
aVamong
p1485
aVcabinetry
p1486
aVspans
p1487
aVpacifier
p1488
aVcapable
p1489
aVattaching
p1490
aVsquash
p1491
aVlaptops
p1492
aVcroquet
p1493
aVdramatic
p1494
aVwake
p1495
aVsound
p1496
aVratchet
p1497
aVcoca
p1498
aVcoco
p1499
aVinvestigating
p1500
aVcock
p1501
aVsleeping
p1502
aVstrain
p1503
aVloosing
p1504
aVprotein
p1505
aVwoodland
p1506
aVlava
p1507
aVextended
p1508
aVassist
p1509
aVcompanion
p1510
aVmotorcade
p1511
aValfalfa
p1512
aVoutdoor
p1513
aVsights
p1514
aVgriddle
p1515
aVflavor
p1516
aVwindmills
p1517
aVvertically
p1518
aVvending
p1519
aVescalators
p1520
aVbuidling
p1521
aVnaan
p1522
aVimages
p1523
aVouts
p1524
aVdrenched
p1525
aVknife
p1526
aVraincoat
p1527
aVdemonic
p1528
aVpockets
p1529
aVuhaul
p1530
aVskilled
p1531
aVharness
p1532
aVskillet
p1533
aVpastures
p1534
aVparaphernalia
p1535
aVdistracted
p1536
aVspicy
p1537
aVspice
p1538
aVarranged
p1539
aVarranges
p1540
aVpeeking
p1541
aVjuggling
p1542
aVrapids
p1543
aVexamine
p1544
aVagain
p1545
aVwaxed
p1546
aVdesignating
p1547
aVlving
p1548
aVu
p1549
aVcommute
p1550
aVexpressions
p1551
aVbriefcases
p1552
aVshattered
p1553
aVpreserves
p1554
aVpreserver
p1555
aVpreserved
p1556
aVenjoying
p1557
aVpuffs
p1558
aVsitting
p1559
aVpuffy
p1560
aVwinning
p1561
aVsurfboarder
p1562
aVramen
p1563
aVnewly
p1564
aVwashing
p1565
aV20th
p1566
aVstrung
p1567
aVperspective
p1568
aVcreatures
p1569
aVswampy
p1570
aVbrackets
p1571
aVwrecked
p1572
aVvideogame
p1573
aVcarseat
p1574
aVmule
p1575
aVsqueezed
p1576
aVaffectionately
p1577
aVmeowing
p1578
aVsofas
p1579
aVlasagna
p1580
aVcaravan
p1581
aVafrica
p1582
aVdachshund
p1583
aVplastered
p1584
aVtacks
p1585
aVcaboose
p1586
aVlanded
p1587
aVkaraoke
p1588
aVhour
p1589
aVsucks
p1590
aVguards
p1591
aVremain
p1592
aVspecialized
p1593
aVladys
p1594
aVjunked
p1595
aVnumbers
p1596
aVneeds
p1597
aVcomfort
p1598
aVmaps
p1599
aVstir
p1600
aVcoming
p1601
aVtoiletries
p1602
aVdragon
p1603
aVupholstered
p1604
aVthrough
p1605
aVmessed
p1606
aVmesses
p1607
aVcompound
p1608
aVviewers
p1609
aVmystery
p1610
aVhuddle
p1611
aVmicro
p1612
aVengaging
p1613
aVwires
p1614
aVbandaged
p1615
aVmmm
p1616
aVextraordinary
p1617
aVbacked
p1618
aVbeginning
p1619
aVfaucet
p1620
aVneeding
p1621
aVtaht
p1622
aVtreetops
p1623
aVshapped
p1624
aVantiques
p1625
aVheights
p1626
aVrazor
p1627
aVjetty
p1628
aVbooster
p1629
aVtoo
p1630
aVtrolly
p1631
aVscantily
p1632
aVgowns
p1633
aVobstructed
p1634
aVbassinet
p1635
aVcurtains
p1636
aVweenies
p1637
aVscrubby
p1638
aVcouch
p1639
aVlifts
p1640
aVrafters
p1641
aVserene
p1642
aVeggs
p1643
aVchart
p1644
aVserviced
p1645
aVcharm
p1646
aVservices
p1647
aVsunhat
p1648
aVfeasting
p1649
aVdrifts
p1650
aVreflections
p1651
aVespresso
p1652
aVbusinesses
p1653
aVexpress
p1654
aVtoddlers
p1655
aVbreast
p1656
aVspikes
p1657
aVmotorcycles
p1658
aVdoubled
p1659
aVspiked
p1660
aVwitches
p1661
aVdoubles
p1662
aVmouthwash
p1663
aVrestaurants
p1664
aVktichen
p1665
aVquiche
p1666
aVexpert
p1667
aVcutout
p1668
aVmailbox
p1669
aVgenerator
p1670
aVrestaurant
p1671
aVtrainyard
p1672
aVforeign
p1673
aVbaltimore
p1674
aVpoint
p1675
aVpamphlet
p1676
aVexpensive
p1677
aVweaving
p1678
aVscreened
p1679
aVpeppers
p1680
aVassorted
p1681
aVpolitician
p1682
aVgrains
p1683
aVgrainy
p1684
aVtiered
p1685
aVskiff
p1686
aVcentury
p1687
aVstoves
p1688
aVcorridor
p1689
aVdevelopment
p1690
aVstrips
p1691
aVstripe
p1692
aVparfait
p1693
aVlacrosse
p1694
aVgestures
p1695
aVtask
p1696
aVnordic
p1697
aVshape
p1698
aVrundown
p1699
aVcut
p1700
aVcup
p1701
aVsource
p1702
aVcub
p1703
aVeaster
p1704
aVvalleys
p1705
aVcandle
p1706
aVgallops
p1707
aVerected
p1708
aVmoored
p1709
aVprices
p1710
aVmotivational
p1711
aVplanet
p1712
aVplanes
p1713
aVstripped
p1714
aVmopeds
p1715
aVcurb
p1716
aVappetizing
p1717
aVcurl
p1718
aVcafe
p1719
aVpickles
p1720
aVmayonnaise
p1721
aVoverlooking
p1722
aVcooker
p1723
aVcooked
p1724
aVpresenting
p1725
aVvalves
p1726
aVportraying
p1727
aVstree
p1728
aVgroceries
p1729
aVsnowmobile
p1730
aVstret
p1731
aVvietnamese
p1732
aVdessert
p1733
aVlegos
p1734
aVentire
p1735
aVrivers
p1736
aVtreeline
p1737
aVassisted
p1738
aVaccess
p1739
aVbeasts
p1740
aVpacking
p1741
aVlater
p1742
aVclimb
p1743
aVcomposed
p1744
aVwharf
p1745
aVcharcoal
p1746
aVexcitedly
p1747
aVkiosk
p1748
aVprizes
p1749
aVnypd
p1750
aVclosing
p1751
aVdidnt
p1752
aVfetch
p1753
aVvaried
p1754
aVflap
p1755
aVholds
p1756
aVprofile
p1757
aVchasing
p1758
aVflask
p1759
aVunmade
p1760
aVmustache
p1761
aVsymbols
p1762
aVhorns
p1763
aVundressed
p1764
aVpugs
p1765
aVstraddling
p1766
aVblindfolded
p1767
aVcider
p1768
aVbackboard
p1769
aVflair
p1770
aVpantry
p1771
aVpopping
p1772
aVhippopotamus
p1773
aVflushing
p1774
aVapproached
p1775
aVfourteen
p1776
aVbackwards
p1777
aVyard
p1778
aVmortar
p1779
aVskateboard
p1780
aVyarn
p1781
aVvehicular
p1782
aVsack
p1783
aVhey
p1784
aVreached
p1785
aVbraces
p1786
aVbologna
p1787
aVstaning
p1788
aVbulldog
p1789
aVnobody
p1790
aVfoamy
p1791
aV1960s
p1792
aVhen
p1793
aVbabys
p1794
aVhave
p1795
aVthroat
p1796
aVramping
p1797
aVpayment
p1798
aVbeets
p1799
aVoccasion
p1800
aVrecess
p1801
aVsettee
p1802
aVrotating
p1803
aVthicket
p1804
aVchilies
p1805
aVprancing
p1806
aVemitting
p1807
aVmonopoly
p1808
aVfixes
p1809
aVteams
p1810
aVmercedes
p1811
aVfixed
p1812
aVturkeys
p1813
aVdaffodils
p1814
aVracket
p1815
aVtuxedos
p1816
aVattempting
p1817
aVhammock
p1818
aVboundary
p1819
aVcauliflower
p1820
aVjoke
p1821
aVmetered
p1822
aVstatues
p1823
aVdenim
p1824
aVswimmer
p1825
aVnewscast
p1826
aVseasoned
p1827
aVrump
p1828
aVantlers
p1829
aVcaddy
p1830
aVlocomotives
p1831
aVwelcoming
p1832
aVwidescreen
p1833
aVsquid
p1834
aVweighed
p1835
aVarrangements
p1836
aVclosets
p1837
aVpartner
p1838
aVtranquil
p1839
aVgrinder
p1840
aVsisters
p1841
aVravine
p1842
aVwreckage
p1843
aVstores
p1844
aVstored
p1845
aVseductively
p1846
aVflashlight
p1847
aVonward
p1848
aVvender
p1849
aVsmart
p1850
aVlike
p1851
aVvibrant
p1852
aVchick
p1853
aVclassical
p1854
aVhair
p1855
aVbulbous
p1856
aVscrewed
p1857
aVsnuggle
p1858
aVnathans
p1859
aVbeaks
p1860
aVsocks
p1861
aVfemale
p1862
aVrushes
p1863
aVcoke
p1864
aVlandscaping
p1865
aVcircus
p1866
aVdetail
p1867
aVdresses
p1868
aVdresser
p1869
aVstirred
p1870
aVstirrer
p1871
aVglider
p1872
aVschool
p1873
aVglued
p1874
aVfeathery
p1875
aVfeathers
p1876
aVdirect
p1877
aVnail
p1878
aVmonorail
p1879
aVblue
p1880
aVhide
p1881
aVsupplied
p1882
aVblur
p1883
aVsupplies
p1884
aVstooges
p1885
aVmozzarella
p1886
aVtinsel
p1887
aVleaves
p1888
aVsettled
p1889
aVmidway
p1890
aVprints
p1891
aVmeats
p1892
aVmeaty
p1893
aVwould
p1894
aVspiky
p1895
aVdistributing
p1896
aVlimousine
p1897
aVsaber
p1898
aVexcellent
p1899
aVabundance
p1900
aVdolphin
p1901
aVgadgets
p1902
aVoverheard
p1903
aVjumble
p1904
aVattract
p1905
aVceremony
p1906
aVdrummer
p1907
aVelizabeth
p1908
aVsalsa
p1909
aVparallel
p1910
aVamid
p1911
aVupside
p1912
aVplumbing
p1913
aVcrumbs
p1914
aVbeside
p1915
aVunzipped
p1916
aVtilts
p1917
aVtrams
p1918
aVbails
p1919
aVflotation
p1920
aVrental
p1921
aVdetroit
p1922
aVrailed
p1923
aVpounce
p1924
aVlaid
p1925
aVcarcass
p1926
aVdays
p1927
aVoutfits
p1928
aVfilter
p1929
aVsoda
p1930
aVattractions
p1931
aVprimary
p1932
aVfantasy
p1933
aVperching
p1934
aVfiction
p1935
aVleaking
p1936
aVreclining
p1937
aVfinal
p1938
aVbridge
p1939
aVhandkerchief
p1940
aVseminar
p1941
aVthorough
p1942
aVhatch
p1943
aVscreensaver
p1944
aVentertaining
p1945
aVsnowman
p1946
aValight
p1947
aVcolors
p1948
aVbail
p1949
aVminnesota
p1950
aVdespite
p1951
aVtoolbox
p1952
aVbeads
p1953
aVsolders
p1954
aVanxiously
p1955
aVkeypad
p1956
aVgrandmother
p1957
aVmud
p1958
aVmug
p1959
aVfinger
p1960
aVherding
p1961
aVrims
p1962
aVnews
p1963
aVgreenwich
p1964
aVantelopes
p1965
aVclowns
p1966
aVconference
p1967
aVpedaling
p1968
aVloft
p1969
aVn
p1970
aVdashboard
p1971
aVhandrail
p1972
aVdumplings
p1973
aVbroth
p1974
aVtress
p1975
aVaccessories
p1976
aVnike
p1977
aVforehead
p1978
aVpeaks
p1979
aVpinstripe
p1980
aVshortly
p1981
aVocean
p1982
aVjean
p1983
aVdads
p1984
aVleaguer
p1985
aVassembling
p1986
aVrodent
p1987
aVfollowed
p1988
aVcolumned
p1989
aVcherry
p1990
aVbreaks
p1991
aVdescending
p1992
aVburns
p1993
aVburnt
p1994
aVmelting
p1995
aVavatar
p1996
aVsponge
p1997
aVrhino
p1998
aVskylight
p1999
aVnunchuk
p2000
aVofficer
p2001
aVkhaki
p2002
aVplying
p2003
aVdinner
p2004
aVbathmat
p2005
aVduke
p2006
aVdials
p2007
aVtoothpicks
p2008
aVlavishly
p2009
aVobscene
p2010
aVbath
p2011
aVsunlight
p2012
aVstuck
p2013
aVtowing
p2014
aVamateur
p2015
aVgorgeous
p2016
aVchests
p2017
aVmannequins
p2018
aVloitering
p2019
aVnerdy
p2020
aVzodiac
p2021
aVcobbled
p2022
aVcobbler
p2023
aVwhen
p2024
aVsetting
p2025
aVpicture
p2026
aVgrasps
p2027
aVfootball
p2028
aVflusher
p2029
aVproceeding
p2030
aVflushed
p2031
aVsacks
p2032
aVvigorously
p2033
aVuncovered
p2034
aVrom
p2035
aVrod
p2036
aVdeliveries
p2037
aVrow
p2038
aVsuckles
p2039
aVpassage
p2040
aVwallets
p2041
aVtanks
p2042
aVclouds
p2043
aVimpressive
p2044
aVlevel
p2045
aVposts
p2046
aVcloudy
p2047
aVlever
p2048
aVpork
p2049
aVbales
p2050
aVport
p2051
aVstately
p2052
aVgoes
p2053
aVentertain
p2054
aVwitch
p2055
aVentrees
p2056
aVtuxedo
p2057
aVdurham
p2058
aVbulbs
p2059
aVvariously
p2060
aVprey
p2061
aVprep
p2062
aVtoday
p2063
aVcases
p2064
aVedible
p2065
aVmeatball
p2066
aVgazelles
p2067
aVpickle
p2068
aVwhle
p2069
aVnursing
p2070
aVfigure
p2071
aVunloads
p2072
aVsailboat
p2073
aVrefridgerator
p2074
aVfourth
p2075
aVwakeboarder
p2076
aVwagging
p2077
aVrepresentation
p2078
aVplatform
p2079
aVfarmer
p2080
aVrefrigerated
p2081
aVfern
p2082
aVgushing
p2083
aVescorting
p2084
aVbats
p2085
aVcoolers
p2086
aVeagle
p2087
aVmanikin
p2088
aVturn
p2089
aVturf
p2090
aVhandled
p2091
aVstylized
p2092
aVminimalistic
p2093
aVcards
p2094
aVexchanging
p2095
aVbatting
p2096
aVsuperman
p2097
aVanimation
p2098
aVresembling
p2099
aVsurf
p2100
aVsure
p2101
aVequestrian
p2102
aVdonation
p2103
aVicon
p2104
aVproud
p2105
aVbeaded
p2106
aVspaced
p2107
aVcheap
p2108
aVspaces
p2109
aVtrot
p2110
aVgull
p2111
aVbelieving
p2112
aVportions
p2113
aVcautionary
p2114
aVskewered
p2115
aVjoker
p2116
aVsurfaces
p2117
aVmanaging
p2118
aVguitar
p2119
aVoffices
p2120
aVquiet
p2121
aVrailway
p2122
aVperiod
p2123
aVstroking
p2124
aVturkey
p2125
aVfeaturing
p2126
aVpeaking
p2127
aVdirection
p2128
aVspirit
p2129
aVpilot
p2130
aVcase
p2131
aVcupping
p2132
aVcash
p2133
aVholidng
p2134
aVparticipant
p2135
aVfender
p2136
aVstatus
p2137
aVweed
p2138
aVdelicate
p2139
aVstatue
p2140
aVdelectable
p2141
aVwithout
p2142
aVrelief
p2143
aVdeflated
p2144
aVbodies
p2145
aVpolish
p2146
aVairfield
p2147
aVlets
p2148
aVnectarines
p2149
aVflashing
p2150
aVpapers
p2151
aVsquating
p2152
aVtowel
p2153
aVshoeless
p2154
aVtowed
p2155
aVdonations
p2156
aVtower
p2157
aVsimulator
p2158
aVcompetition
p2159
aVlentils
p2160
aVfreez
p2161
aVbento
p2162
aVmoon
p2163
aVbuddha
p2164
aVgoogles
p2165
aVdiced
p2166
aVbeached
p2167
aVfillings
p2168
aVwildebeests
p2169
aVoverripe
p2170
aVpullman
p2171
aVthere
p2172
aVfastball
p2173
aVfaster
p2174
aVgrasp
p2175
aVgrass
p2176
aVvespas
p2177
aVtaste
p2178
aVtasty
p2179
aVoverflowing
p2180
aVroses
p2181
aVpillows
p2182
aVcordless
p2183
aVwife
p2184
aVqantas
p2185
aVdirectors
p2186
aVplatter
p2187
aVcrumpled
p2188
aVcough
p2189
aVwreath
p2190
aVparakeets
p2191
aVglimpse
p2192
aVapartment
p2193
aVdairy
p2194
aVcrest
p2195
aVtethered
p2196
aVegyptian
p2197
aVlist
p2198
aVchalk
p2199
aVsub
p2200
aVsun
p2201
aVsum
p2202
aVsuv
p2203
aVsup
p2204
aVwoma
p2205
aVsunbathers
p2206
aVtoes
p2207
aVthemself
p2208
aVmilkshake
p2209
aVcamcorder
p2210
aVguacamole
p2211
aVbinders
p2212
aVdonuts
p2213
aVrustic
p2214
aVgarnish
p2215
aVhorses
p2216
aVflat
p2217
aVflag
p2218
aVrather
p2219
aVuntied
p2220
aVtinfoil
p2221
aVokay
p2222
aVflip
p2223
aVlighting
p2224
aVadventure
p2225
aVconcentrating
p2226
aVshort
p2227
aVsusan
p2228
aVshore
p2229
aVshorn
p2230
aVencased
p2231
aVargyle
p2232
aVisnt
p2233
aVhandrails
p2234
aVavenue
p2235
aVmattress
p2236
aVbout
p2237
aVsoccer
p2238
aVsomebody
p2239
aVhunter
p2240
aVinstructions
p2241
aVtilted
p2242
aVweight
p2243
aValcohol
p2244
aVhill
p2245
aVroofs
p2246
aVfriday
p2247
aVtassels
p2248
aVsnowboarding
p2249
aVfallen
p2250
aVurinal
p2251
aVtraveled
p2252
aVtraveler
p2253
aVstory
p2254
aVleading
p2255
aVcomfy
p2256
aVstork
p2257
aVstorm
p2258
aVoutcropping
p2259
aVstore
p2260
aVgps
p2261
aVrifle
p2262
aVking
p2263
aVkind
p2264
aVtongues
p2265
aVskyscrapers
p2266
aVwilson
p2267
aVelectric
p2268
aVpopulate
p2269
aVstorefronts
p2270
aVpatterned
p2271
aVtraditional
p2272
aVlying
p2273
aVgrazed
p2274
aVgrazes
p2275
aVmario
p2276
aVatv
p2277
aVtriangle
p2278
aVgains
p2279
aVnecked
p2280
aVengraved
p2281
aVwrote
p2282
aVdefense
p2283
aVheaped
p2284
aVtummy
p2285
aVblurs
p2286
aVoverstuffed
p2287
aVsolo
p2288
aVsold
p2289
aVsole
p2290
aVcitys
p2291
aVbibs
p2292
aVbodyboard
p2293
aVsititng
p2294
aVkiteboards
p2295
aVsweet
p2296
aVwastebasket
p2297
aVdudes
p2298
aVvillage
p2299
aVaffectionate
p2300
aVflight
p2301
aVcones
p2302
aVinstructor
p2303
aVfrozen
p2304
aVhomework
p2305
aVdemon
p2306
aVvegitables
p2307
aVobstacle
p2308
aVshirt
p2309
aV9
p2310
aVdaughters
p2311
aVhigher
p2312
aVcement
p2313
aVliquids
p2314
aVmachinery
p2315
aVparasurfing
p2316
aVcollect
p2317
aVsauces
p2318
aVsaucer
p2319
aVsized
p2320
aVretro
p2321
aVcontrasting
p2322
aVbartender
p2323
aVperpendicular
p2324
aVsporty
p2325
aVpipeline
p2326
aVkitchenette
p2327
aVplaza
p2328
aVbirdbath
p2329
aVrange
p2330
aVballgame
p2331
aVjohns
p2332
aVwarmed
p2333
aVimpressed
p2334
aVrows
p2335
aVquestion
p2336
aVkitchenware
p2337
aVlandscaped
p2338
aVfied
p2339
aVsepia
p2340
aVrally
p2341
aVrainbow
p2342
aVpeach
p2343
aVpeace
p2344
aVbacks
p2345
aVnick
p2346
aVnice
p2347
aVusers
p2348
aVbreasts
p2349
aVmeaning
p2350
aVallowing
p2351
aVposters
p2352
aVdepartments
p2353
aVdragged
p2354
aVbuffalo
p2355
aValien
p2356
aVwindy
p2357
aVgang
p2358
aVwinds
p2359
aVcruiser
p2360
aVlanguages
p2361
aVinclude
p2362
aVleveled
p2363
aVplows
p2364
aVwrestling
p2365
aVcommodes
p2366
aVfolk
p2367
aVshowcase
p2368
aV19th
p2369
aVchose
p2370
aVkangaroo
p2371
aVexplore
p2372
aVdistressed
p2373
aVlarger
p2374
aVshades
p2375
aVleaving
p2376
aVsuggests
p2377
aVsubmerged
p2378
aVshaded
p2379
aVapp
p2380
aVaboard
p2381
aVcheerleader
p2382
aVbindings
p2383
aVfireplug
p2384
aVfrom
p2385
aVfron
p2386
aVfreezers
p2387
aVantennae
p2388
aVparrots
p2389
aVrefigerator
p2390
aVhilton
p2391
aVsidewalks
p2392
aVrodeo
p2393
aVbrownstone
p2394
aVtoddler
p2395
aVtypewriter
p2396
aVattend
p2397
aVtack
p2398
aVwrist
p2399
aVtaco
p2400
aVfaucets
p2401
aVsanctioned
p2402
aVcotta
p2403
aVholiday
p2404
aVcrowds
p2405
aVarticles
p2406
aVclippings
p2407
aVbegs
p2408
aVtrimmed
p2409
aVcursive
p2410
aVour
p2411
aVout
p2412
aVherded
p2413
aVherder
p2414
aVpours
p2415
aVutensil
p2416
aVorganic
p2417
aVg
p2418
aVbiting
p2419
aVbonnet
p2420
aVumbrellas
p2421
aVunknown
p2422
aVpriority
p2423
aVdreadlocks
p2424
aVmules
p2425
aVclip
p2426
aVfowl
p2427
aVteenagers
p2428
aVlinked
p2429
aVringed
p2430
aVtrespassing
p2431
aVpatchy
p2432
aVpretzels
p2433
aVcollaboration
p2434
aVwho
p2435
aVwhy
p2436
aVskying
p2437
aVpleased
p2438
aVstudded
p2439
aVlocal
p2440
aVcube
p2441
aVpayphone
p2442
aVcubs
p2443
aVcoordinating
p2444
aVmarried
p2445
aVavailable
p2446
aVworkbench
p2447
aVconverted
p2448
aVidentification
p2449
aVfifties
p2450
aVcrude
p2451
aVopening
p2452
aVjoy
p2453
aVjob
p2454
aVjoe
p2455
aVstucco
p2456
aVgrounds
p2457
aVunclear
p2458
aVmotorbike
p2459
aVdecent
p2460
aVdressers
p2461
aVbackback
p2462
aVstunning
p2463
aVmotif
p2464
aVlakeside
p2465
aVrooster
p2466
aVdraining
p2467
aVperhaps
p2468
aVbuddhist
p2469
aVlargest
p2470
aVwarming
p2471
aVlukes
p2472
aVcamel
p2473
aVusage
p2474
aVjars
p2475
aVwagon
p2476
aVfacial
p2477
aVcatchers
p2478
aVpress
p2479
aVname
p2480
aVhosts
p2481
aVpasties
p2482
aVwonders
p2483
aVmeatloaf
p2484
aVfloss
p2485
aVpasty
p2486
aVripped
p2487
aVpasta
p2488
aVpaste
p2489
aVpike
p2490
aVrare
p2491
aVcarried
p2492
aVcarries
p2493
aVcarrier
p2494
aVpolished
p2495
aVwilderness
p2496
aVweather
p2497
aVbirdhouse
p2498
aVspiral
p2499
aVlookign
p2500
aVtorch
p2501
aVcatsup
p2502
aVautomated
p2503
aVprotesting
p2504
aVyorkie
p2505
aVcatching
p2506
aVintimidating
p2507
aVmaroon
p2508
aVsheered
p2509
aVincredible
p2510
aVcoffees
p2511
aVspatulas
p2512
aVincredibly
p2513
aVkinds
p2514
aVshredded
p2515
aVnourishment
p2516
aVpumps
p2517
aVsash
p2518
aVwritings
p2519
aVyellow
p2520
aVornate
p2521
aVmarching
p2522
aVelectricity
p2523
aVsunlit
p2524
aVshielding
p2525
aVdeli
p2526
aVdell
p2527
aVfigs
p2528
aVprize
p2529
aVsatchel
p2530
aVfritter
p2531
aVcharter
p2532
aVglassy
p2533
aVdaybed
p2534
aVmiller
p2535
aVtether
p2536
aVsterile
p2537
aVdangled
p2538
aVleaning
p2539
aVdorm
p2540
aVdork
p2541
aVstrewn
p2542
aVmilitary
p2543
aVspoke
p2544
aVkettles
p2545
aVtelegraph
p2546
aVrelax
p2547
aVsuccessful
p2548
aVhurt
p2549
aVtying
p2550
aVblade
p2551
aVmelons
p2552
aVhousehold
p2553
aVorganized
p2554
aVcruising
p2555
aVorganizer
p2556
aVdamage
p2557
aVmachine
p2558
aVcheetah
p2559
aVgaming
p2560
aVsippy
p2561
aVdiagram
p2562
aVcalves
p2563
aVattracts
p2564
aVkeeps
p2565
aVwing
p2566
aVwind
p2567
aVwine
p2568
aVdiagonally
p2569
aVlovingly
p2570
aVdirectional
p2571
aVdiffrent
p2572
aVhidden
p2573
aVduvet
p2574
aVslicing
p2575
aVcaptioned
p2576
aVparasols
p2577
aVsilver
p2578
aVgrasslands
p2579
aVshoelace
p2580
aVfinancial
p2581
aVgarment
p2582
aVblinder
p2583
aVbowls
p2584
aVknitting
p2585
aVknit
p2586
aVups
p2587
aVeatting
p2588
aVshopper
p2589
aVshopped
p2590
aVwash
p2591
aVlego
p2592
aVcooling
p2593
aVlisted
p2594
aVblossoms
p2595
aVlegs
p2596
aVlisten
p2597
aVdanish
p2598
aVconcrete
p2599
aVeagerly
p2600
aVmetallic
p2601
aVcausing
p2602
aVpaintbrush
p2603
aVzebras
p2604
aVlooming
p2605
aVvictoria
p2606
aVletter
p2607
aVretaining
p2608
aVreleased
p2609
aVgrove
p2610
aVbomb
p2611
aVdeparting
p2612
aVreclined
p2613
aVtequila
p2614
aVgauge
p2615
aVrecliner
p2616
aVreclines
p2617
aVnightstands
p2618
aVlazing
p2619
aVmenu
p2620
aVmens
p2621
aVtheme
p2622
aVpiggy
p2623
aVflanked
p2624
aVfair
p2625
aVfail
p2626
aVbest
p2627
aVpancakes
p2628
aVscore
p2629
aVpirate
p2630
aVpreserve
p2631
aVclaws
p2632
aVpaddington
p2633
aVcanyon
p2634
aVcontestants
p2635
aVskatepark
p2636
aVchrome
p2637
aVstartled
p2638
aVlife
p2639
aVwritting
p2640
aVjoust
p2641
aVlift
p2642
aVchild
p2643
aVchili
p2644
aVchill
p2645
aVjams
p2646
aVpiercings
p2647
aVfeed
p2648
aVlushly
p2649
aVbabies
p2650
aVfairly
p2651
aVtops
p2652
aVcooktop
p2653
aVnachos
p2654
aVcellophane
p2655
aVcasually
p2656
aVpossible
p2657
aVpossibly
p2658
aVbirth
p2659
aVcalfs
p2660
aVunique
p2661
aVarticulated
p2662
aVseaside
p2663
aVpavement
p2664
aVsteps
p2665
aVpeople
p2666
aVattendees
p2667
aVfor
p2668
aVfox
p2669
aVfog
p2670
aVdental
p2671
aVtrampoline
p2672
aVdollars
p2673
aVcitizens
p2674
aVhyrdrant
p2675
aVgauze
p2676
aVpanorama
p2677
aVwidth
p2678
aVoverhead
p2679
aVhappy
p2680
aVmanufacturers
p2681
aVtigers
p2682
aVlays
p2683
aVpanels
p2684
aVjuvenile
p2685
aVlooms
p2686
aVtournament
p2687
aVunderbelly
p2688
aVposting
p2689
aVcrutches
p2690
aVdotted
p2691
aVprotester
p2692
aVpeacock
p2693
aVforage
p2694
aVvenice
p2695
aVservicing
p2696
aVtear
p2697
aVollie
p2698
aVsubway
p2699
aVteal
p2700
aVteam
p2701
aVinscribed
p2702
aVprevent
p2703
aVminion
p2704
aVsteaks
p2705
aVcurrent
p2706
aVcrumbled
p2707
aVstudies
p2708
aVcarpets
p2709
aVlove
p2710
aVbloody
p2711
aVtraversing
p2712
aVforefront
p2713
aVsunbathing
p2714
aVtightly
p2715
aVwondering
p2716
aVvisual
p2717
aVhoney
p2718
aVoverloaded
p2719
aVwhiteboard
p2720
aVhides
p2721
aVwinter
p2722
aVelephant
p2723
aVsnaps
p2724
aVspot
p2725
aVmisshapen
p2726
aVdate
p2727
aVfilthy
p2728
aVwheelchair
p2729
aVupcoming
p2730
aVkayaks
p2731
aVkong
p2732
aVbucking
p2733
aVbraids
p2734
aVsolitary
p2735
aVbagels
p2736
aVattraction
p2737
aVcreations
p2738
aVdwarfs
p2739
aVmatches
p2740
aVrecords
p2741
aVarriving
p2742
aVrunners
p2743
aVbowling
p2744
aVrepaired
p2745
aVbovine
p2746
aVcrowding
p2747
aVcanvas
p2748
aVcontainer
p2749
aVrounding
p2750
aVcontained
p2751
aVsuggesting
p2752
aVinspects
p2753
aVbordering
p2754
aVdodgers
p2755
aVintensely
p2756
aVdisguised
p2757
aVjetliners
p2758
aVspam
p2759
aVostrich
p2760
aVpotter
p2761
aVchubby
p2762
aVpotted
p2763
aVrunways
p2764
aVindicate
p2765
aV2
p2766
aVtyping
p2767
aVfloppy
p2768
aVpadding
p2769
aVrepresenting
p2770
aVfuture
p2771
aVscuba
p2772
aVtastes
p2773
aVtake
p2774
aValtered
p2775
aVmicrowaves
p2776
aVstilts
p2777
aVcrooked
p2778
aVwalking
p2779
aVdeck
p2780
aVhockey
p2781
aVequipped
p2782
aVrobe
p2783
aVclawing
p2784
aVneath
p2785
aVcarolina
p2786
aVsurgery
p2787
aVdives
p2788
aVwielding
p2789
aVsideburns
p2790
aVgoers
p2791
aVnavigates
p2792
aVteens
p2793
aVcantaloupe
p2794
aVsupermarket
p2795
aVreigns
p2796
aVjets
p2797
aVexpression
p2798
aVtwin
p2799
aVanti
p2800
aVtwig
p2801
aVcombines
p2802
aVteddy
p2803
aVtoothpaste
p2804
aVvacation
p2805
aVbreath
p2806
aVcombined
p2807
aVrooftops
p2808
aVparasail
p2809
aVresturant
p2810
aVshepard
p2811
aVbrow
p2812
aVbros
p2813
aVcoconuts
p2814
aVcheers
p2815
aVrandom
p2816
aVvacant
p2817
aVtrains
p2818
aVbarbecued
p2819
aVskied
p2820
aVarmchair
p2821
aVprominently
p2822
aVpot
p2823
aVskies
p2824
aVskier
p2825
aVclam
p2826
aVclad
p2827
aVsouvenirs
p2828
aVpom
p2829
aVclay
p2830
aVclaw
p2831
aVgrouping
p2832
aVthinks
p2833
aVtube
p2834
aVtubs
p2835
aVjoyfully
p2836
aVact
p2837
aVgesturing
p2838
aVcurling
p2839
aVanothers
p2840
aVimage
p2841
aVbookcases
p2842
aVbundt
p2843
aVbuying
p2844
aVsnowshoes
p2845
aVtorso
p2846
aVdetailed
p2847
aVgone
p2848
aVad
p2849
aVaf
p2850
aVam
p2851
aVal
p2852
aVan
p2853
aVas
p2854
aVat
p2855
aVbeaming
p2856
aVcongress
p2857
aVherbs
p2858
aVcpu
p2859
aVstandup
p2860
aVdressing
p2861
aVpuzzled
p2862
aVcandid
p2863
aVcondition
p2864
aVhighways
p2865
aVaccompanying
p2866
aVdinosaur
p2867
aVhumongous
p2868
aVsync
p2869
aVsituated
p2870
aVcast
p2871
aVsection
p2872
aVburgundy
p2873
aVnurse
p2874
aVcontrast
p2875
aVhours
p2876
aVpics
p2877
aVhamster
p2878
aVpick
p2879
aVaction
p2880
aVbrimmed
p2881
aVstrolling
p2882
aVvest
p2883
aVindoors
p2884
aVridding
p2885
aVpitching
p2886
aValcove
p2887
aVriverbank
p2888
aVkeeping
p2889
aVscience
p2890
aVbeautiful
p2891
aVgallop
p2892
aVneglected
p2893
aVaccept
p2894
aVfiving
p2895
aVstates
p2896
aVironic
p2897
aVgallon
p2898
aVtapestry
p2899
aVinformation
p2900
aVbrowns
p2901
aVunattended
p2902
aVcreature
p2903
aVcountryside
p2904
aVbackyard
p2905
aVdeviled
p2906
aVhauling
p2907
aVwrench
p2908
aVpans
p2909
aVmexican
p2910
aVpant
p2911
aVpane
p2912
aVhouseplant
p2913
aVtravelling
p2914
aVhotdogs
p2915
aValways
p2916
aVswimsuit
p2917
aVeva
p2918
aVdisorganized
p2919
aVbends
p2920
aVrowboats
p2921
aVbouquets
p2922
aVmissed
p2923
aVmisses
p2924
aVstreaking
p2925
aVhighway
p2926
aVdrifting
p2927
aVporcelain
p2928
aVw
p2929
aVbumper
p2930
aVemblazoned
p2931
aVnumber
p2932
aVslipper
p2933
aVgazes
p2934
aVheads
p2935
aVthreatening
p2936
aVcheckpoint
p2937
aVomelette
p2938
aVimmediate
p2939
aVappreciation
p2940
aVfocusing
p2941
aVgrace
p2942
aVobama
p2943
aVpear
p2944
aVdetermined
p2945
aVmarriage
p2946
aVrefrigerators
p2947
aVplay
p2948
aVplat
p2949
aVplan
p2950
aVplae
p2951
aVcover
p2952
aVattacking
p2953
aVsession
p2954
aVsideboard
p2955
aVcondos
p2956
aVcondom
p2957
aVdandelion
p2958
aVpreparing
p2959
aVclosely
p2960
aVsleeve
p2961
aVset
p2962
aVsex
p2963
aVsee
p2964
aVsea
p2965
aVoutward
p2966
aVvitamins
p2967
aVcrosswalk
p2968
aVwhole
p2969
aVlanyard
p2970
aVdrunk
p2971
aVforklift
p2972
aVcommunity
p2973
aVhollow
p2974
aVroofing
p2975
aVfilth
p2976
aVhitting
p2977
aVfirm
p2978
aVfire
p2979
aVwheeler
p2980
aVequestrians
p2981
aVtowns
p2982
aVwheeled
p2983
aVsesame
p2984
aVsecluded
p2985
aVcasino
p2986
aVmote
p2987
aVdotting
p2988
aVmoto
p2989
aVfunny
p2990
aVdecor
p2991
aVchoking
p2992
aVelevated
p2993
aVpecking
p2994
aVpikachu
p2995
aVleaps
p2996
aVfocal
p2997
aVcanned
p2998
aVhelmeted
p2999
aVhued
p3000
aVchest
p3001
aVpillars
p3002
aVlocation
p3003
aVshoestring
p3004
aVclutches
p3005
aVhoods
p3006
aVclutched
p3007
aVrandys
p3008
aVsighn
p3009
aVsight
p3010
aVstables
p3011
aVbe
p3012
aVcrooks
p3013
aVbi
p3014
aVbu
p3015
aVbp
p3016
aVsanta
p3017
aVby
p3018
aVwildlife
p3019
aVanything
p3020
aVprimarily
p3021
aVarcade
p3022
aVretrieving
p3023
aVoccupy
p3024
aVjewish
p3025
aVrelaxed
p3026
aVbuttery
p3027
aVpastor
p3028
aVlink
p3029
aVline
p3030
aVrelaxes
p3031
aVlinens
p3032
aVhorned
p3033
aVcorsage
p3034
aVmature
p3035
aVcoasting
p3036
aVactors
p3037
aVswirl
p3038
aVsails
p3039
aVsided
p3040
aVcobblestone
p3041
aVsides
p3042
aVovertop
p3043
aVwalked
p3044
aVsummit
p3045
aVwalker
p3046
aVhello
p3047
aVsquats
p3048
aVresults
p3049
aVdescription
p3050
aVsend
p3051
aVoutwards
p3052
aVhipster
p3053
aVovergrowth
p3054
aVgarden
p3055
aVllama
p3056
aVindex
p3057
aVtwine
p3058
aVtwins
p3059
aVbird
p3060
aVwaling
p3061
aVled
p3062
aVleg
p3063
aVlei
p3064
aVlet
p3065
aVengage
p3066
aVresidents
p3067
aVmariners
p3068
aVboxy
p3069
aVstanding
p3070
aVlabelled
p3071
aVsharply
p3072
aVcasserole
p3073
aVdrill
p3074
aVbent
p3075
aVbenz
p3076
aVhigh
p3077
aVbend
p3078
aVblvd
p3079
aVtrumpet
p3080
aVdocking
p3081
aVanimal
p3082
aVblocks
p3083
aVwallpaper
p3084
aVnotebook
p3085
aVdemonstrating
p3086
aVboeing
p3087
aVallot
p3088
aVallow
p3089
aVhobby
p3090
aVdesigns
p3091
aVknick
p3092
aVkiss
p3093
aVmerge
p3094
aVrising
p3095
aVbeginner
p3096
aVthirteen
p3097
aVwander
p3098
aVwalnuts
p3099
aVbunched
p3100
aVbunches
p3101
aVoblong
p3102
aVyawns
p3103
aVlatest
p3104
aVdismantled
p3105
aVspill
p3106
aVblown
p3107
aVpines
p3108
aVowned
p3109
aVjesus
p3110
aVstraining
p3111
aVowner
p3112
aVblows
p3113
aVspaceship
p3114
aVrotunda
p3115
aVfirehydrant
p3116
aVsteel
p3117
aVcolleagues
p3118
aVbuttocks
p3119
aVsteet
p3120
aVsteep
p3121
aVsteer
p3122
aVspelled
p3123
aVclearly
p3124
aVnecessities
p3125
aVdocuments
p3126
aVstudying
p3127
aVmechanism
p3128
aVdemolished
p3129
aVsoap
p3130
aVsoar
p3131
aVmedal
p3132
aVsocializing
p3133
aVshaven
p3134
aVbiker
p3135
aVbikes
p3136
aVmanchester
p3137
aVplanter
p3138
aVhops
p3139
aVplanted
p3140
aVbourbon
p3141
aVhope
p3142
aVstreamlined
p3143
aVhandstand
p3144
aVslanted
p3145
aVinteracting
p3146
aVamtrak
p3147
aVemail
p3148
aVfancily
p3149
aVdrum
p3150
aVdrug
p3151
aVsugared
p3152
aVfigures
p3153
aVvolley
p3154
aVadjusted
p3155
aVco
p3156
aVcb
p3157
aVca
p3158
aVcd
p3159
aVarugula
p3160
aVcrafted
p3161
aVct
p3162
aVroasting
p3163
aVatlanta
p3164
aVgrinning
p3165
aVrigged
p3166
aVripe
p3167
aVlush
p3168
aVhighlighted
p3169
aVapricots
p3170
aVglares
p3171
aVball
p3172
aVdusk
p3173
aVbale
p3174
aVbald
p3175
aVsurfboarding
p3176
aVpaving
p3177
aVrobotic
p3178
aVdust
p3179
aVoveralls
p3180
aVbananas
p3181
aVgulls
p3182
aVglue
p3183
aVunplugged
p3184
aVresidential
p3185
aVwinnie
p3186
aVcrisp
p3187
aVonion
p3188
aVcriss
p3189
aVsleds
p3190
aVparagliding
p3191
aVballon
p3192
aVtransport
p3193
aVavoid
p3194
aVfedex
p3195
aVstairway
p3196
aVstage
p3197
aVsister
p3198
aVangeles
p3199
aVseeds
p3200
aVswimmers
p3201
aVcradling
p3202
aVfunction
p3203
aVfunnel
p3204
aVdelivery
p3205
aVconstruction
p3206
aVdelivers
p3207
aVofficial
p3208
aVsmooth
p3209
aVvolvo
p3210
aVharvested
p3211
aVbearing
p3212
aVvariety
p3213
aVfootprints
p3214
aVrural
p3215
aVbuoy
p3216
aVall
p3217
aVblanket
p3218
aVsellers
p3219
aVwagons
p3220
aVbewildered
p3221
aVnear
p3222
aVabove
p3223
aVcounters
p3224
aVsinks
p3225
aVpursuit
p3226
aVtextured
p3227
aVcelebration
p3228
aVstuds
p3229
aVhairdo
p3230
aVemployees
p3231
aVsmoke
p3232
aVsecure
p3233
aVatrium
p3234
aVglance
p3235
aVchooses
p3236
aVknoll
p3237
aVindiana
p3238
aVrenovations
p3239
aViv
p3240
aVbunnies
p3241
aVmechanic
p3242
aVelegantly
p3243
aVpiers
p3244
aVindifferent
p3245
aVboats
p3246
aVordinary
p3247
aVfudge
p3248
aVhosing
p3249
aVchilled
p3250
aVexhibition
p3251
aVgreet
p3252
aVgreek
p3253
aVgreen
p3254
aVsomewhere
p3255
aVbottled
p3256
aVthen
p3257
aVthem
p3258
aVthee
p3259
aVgiraffe
p3260
aVthey
p3261
aVther
p3262
aVflock
p3263
aVforty
p3264
aVvessels
p3265
aVforth
p3266
aVsliding
p3267
aVordering
p3268
aVincorporated
p3269
aVchopped
p3270
aVchopper
p3271
aVplentiful
p3272
aVflagpole
p3273
aVairy
p3274
aVluncheon
p3275
aVtavern
p3276
aVmanner
p3277
aVstrength
p3278
aVcheesey
p3279
aVversion
p3280
aVgoalie
p3281
aVdo
p3282
aVdj
p3283
aVde
p3284
aVdc
p3285
aVfrowning
p3286
aVpotties
p3287
aVdu
p3288
aVdr
p3289
aVds
p3290
aVsquadron
p3291
aVlemonade
p3292
aVruffle
p3293
aVmangoes
p3294
aVsnoozing
p3295
aVgentleman
p3296
aVswimwear
p3297
aVprops
p3298
aVpackaged
p3299
aVpackages
p3300
aVcop
p3301
aVcot
p3302
aVcow
p3303
aVhummus
p3304
aVcob
p3305
aVcoo
p3306
aVtucks
p3307
aVchimneys
p3308
aVdozens
p3309
aVcutouts
p3310
aVfamilies
p3311
aVnaval
p3312
aVdumped
p3313
aVpinstriped
p3314
aVplated
p3315
aVplater
p3316
aVplates
p3317
aVrail
p3318
aVrain
p3319
aVdepict
p3320
aVcondiments
p3321
aVeps
p3322
aV1971
p3323
aVthe
p3324
aVadding
p3325
aVhills
p3326
aVflooring
p3327
aVhilly
p3328
aVspread
p3329
aVtransformed
p3330
aVcranberries
p3331
aVcaps
p3332
aVbarge
p3333
aVcape
p3334
aVscooping
p3335
aVgrizzly
p3336
aVlapsed
p3337
aVgrizzle
p3338
aVsecurity
p3339
aVantique
p3340
aVpurple
p3341
aVgraduates
p3342
aVscarves
p3343
aVdiner
p3344
aVtheirs
p3345
aVanime
p3346
aVgingerbread
p3347
aVpineapples
p3348
aVmantle
p3349
aVpays
p3350
aVbalances
p3351
aVbalanced
p3352
aVfight
p3353
aVmold
p3354
aVphysical
p3355
aVbaguette
p3356
aVhandmade
p3357
aVinterested
p3358
aVcarpeting
p3359
aVfairground
p3360
aVtogether
p3361
aVreception
p3362
aVtoothpick
p3363
aVbrochure
p3364
aVgrape
p3365
aVzone
p3366
aVgraph
p3367
aVhump
p3368
aVflash
p3369
aVglad
p3370
aVprotective
p3371
aVblast
p3372
aVmargarita
p3373
aVp
p3374
aVscaffold
p3375
aVsupporting
p3376
aVv
p3377
aVappears
p3378
aVchange
p3379
aVpedals
p3380
aVjay
p3381
aVexiting
p3382
aVtrial
p3383
aVhiking
p3384
aVsnowboard
p3385
aVseashore
p3386
aVstreetcar
p3387
aVlive
p3388
aVentrance
p3389
aVtowers
p3390
aVclumps
p3391
aVbeaver
p3392
aVlabeled
p3393
aVgathers
p3394
aVwaterski
p3395
aVspa
p3396
aVswung
p3397
aVmeans
p3398
aVtrophies
p3399
aVstaircase
p3400
aVcourt
p3401
aVgoal
p3402
aVcrepe
p3403
aVcandles
p3404
aVbaseballs
p3405
aVtagged
p3406
aVforeclosure
p3407
aVcolt
p3408
aVhaircut
p3409
aVcold
p3410
aVcole
p3411
aVbirds
p3412
aVcola
p3413
aVrooftop
p3414
aVreacting
p3415
aVwindow
p3416
aVfling
p3417
aVhalf
p3418
aVhall
p3419
aVhalo
p3420
aVbarrow
p3421
aVwont
p3422
aVstreaks
p3423
aVgoat
p3424
aVentirely
p3425
aVen
p3426
aVfired
p3427
aVed
p3428
aVgoose
p3429
aVfires
p3430
aVex
p3431
aVshown
p3432
aVopened
p3433
aVspace
p3434
aVopener
p3435
aVreceiving
p3436
aVshows
p3437
aVgrimacing
p3438
aVdomes
p3439
aVdomed
p3440
aVstriking
p3441
aVcomprised
p3442
aVsheep
p3443
aVsheer
p3444
aVsheet
p3445
aVjugs
p3446
aVbreed
p3447
aVcarousel
p3448
aVfriend
p3449
aVmostly
p3450
aVexpanse
p3451
aVrugged
p3452
aVseuss
p3453
aVfruits
p3454
aVfruity
p3455
aVlunches
p3456
aVangel
p3457
aV13th
p3458
aVbreakfast
p3459
aVskidding
p3460
aVveteran
p3461
aVmarinara
p3462
aVsunset
p3463
aVabraham
p3464
aVfoaming
p3465
aVoctagonal
p3466
aVground
p3467
aVgnar
p3468
aVremotes
p3469
aVhusband
p3470
aVattached
p3471
aVfanned
p3472
aVdressage
p3473
aVtackling
p3474
aVarticle
p3475
aVstages
p3476
aVballpark
p3477
aVcomes
p3478
aVforehand
p3479
aVpigtails
p3480
aVcoffeemaker
p3481
aVmenacingly
p3482
aVmotorcylces
p3483
aVobservers
p3484
aVstovetop
p3485
aVstems
p3486
aVsoil
p3487
aVdecoration
p3488
aVembrace
p3489
aVheels
p3490
aVmedia
p3491
aVdocument
p3492
aVfinish
p3493
aVfruit
p3494
aVtheater
p3495
aVpuree
p3496
aVpitbull
p3497
aVrestrooms
p3498
aVtouch
p3499
aVspeed
p3500
aVsnowboarder
p3501
aVdesktop
p3502
aVstruck
p3503
aVhover
p3504
aVfrown
p3505
aVread
p3506
aVlady
p3507
aVrear
p3508
aVpostcard
p3509
aVdownward
p3510
aVrecorded
p3511
aVrecorder
p3512
aVpaints
p3513
aVchoo
p3514
aVchop
p3515
aVunderway
p3516
aVheater
p3517
aVbathtubs
p3518
aVheated
p3519
aVoperator
p3520
aVprepare
p3521
aVstealth
p3522
aVcuriously
p3523
aVcottage
p3524
aVtrying
p3525
aVcomics
p3526
aVbucket
p3527
aVcartons
p3528
aVoxen
p3529
aVdescribe
p3530
aVmoved
p3531
aVsales
p3532
aVmoves
p3533
aVnerd
p3534
aVnerf
p3535
aVantenna
p3536
aVstorage
p3537
aVfoothills
p3538
aVhouseboat
p3539
aVgaining
p3540
aVpolar
p3541
aVflattened
p3542
aVtorches
p3543
aVstrings
p3544
aVpointing
p3545
aVsplitting
p3546
aVmp3
p3547
aVbatches
p3548
aVwashroom
p3549
aVvert
p3550
aVvery
p3551
aVrobes
p3552
aVmph
p3553
aVattemping
p3554
aVheadgear
p3555
aVspaceous
p3556
aVcoals
p3557
aVnearing
p3558
aVbomber
p3559
aVdribbling
p3560
aVma
p3561
aVstrong
p3562
aVultra
p3563
aVcolored
p3564
aVahead
p3565
aVsoldier
p3566
aVbordered
p3567
aVhogs
p3568
aVchunky
p3569
aVchunks
p3570
aVstirfry
p3571
aVinjury
p3572
aVbroke
p3573
aVbrowned
p3574
aVhurry
p3575
aVsweeps
p3576
aVnine
p3577
aVparasol
p3578
aVbarbwire
p3579
aVpushes
p3580
aVpushed
p3581
aVlacks
p3582
aVmotorcross
p3583
aVchops
p3584
aVdwarfed
p3585
aVfe
p3586
aVfo
p3587
aVlaminate
p3588
aVbugs
p3589
aVchicks
p3590
aVrhinos
p3591
aVcyclists
p3592
aVfood
p3593
aVsweeping
p3594
aVfully
p3595
aVtrailer
p3596
aVsoapy
p3597
aVsince
p3598
aVdunk
p3599
aVbass
p3600
aVprotruding
p3601
aVdirt
p3602
aVpug
p3603
aVpub
p3604
aVbase
p3605
aVcoastline
p3606
aVash
p3607
aVpup
p3608
aVdip
p3609
aVcheering
p3610
aVscouts
p3611
aVgrime
p3612
aVreflected
p3613
aVelder
p3614
aVflorets
p3615
aVairborne
p3616
aVjordan
p3617
aVperformers
p3618
aVdeciding
p3619
aVbridles
p3620
aVkart
p3621
aVjuicy
p3622
aVjuice
p3623
aVbridled
p3624
aVflaming
p3625
aVtowards
p3626
aVquote
p3627
aVeaten
p3628
aVblend
p3629
aVcowgirl
p3630
aVbooze
p3631
aVpretty
p3632
aVtrees
p3633
aVfamous
p3634
aVtreed
p3635
aVgloved
p3636
aVfootbridge
p3637
aVwithe
p3638
aVwitha
p3639
aVperfume
p3640
aVgloves
p3641
aVcorgi
p3642
aVscanning
p3643
aVoutboard
p3644
aVmanning
p3645
aVpatties
p3646
aVwon
p3647
aVwok
p3648
aVreadying
p3649
aVshortcake
p3650
aVstoplight
p3651
aVbattery
p3652
aVawnings
p3653
aVbadminton
p3654
aVlikes
p3655
aVciabatta
p3656
aVmaintenance
p3657
aVpartly
p3658
aVpacks
p3659
aVcrack
p3660
aVgrille
p3661
aVgrills
p3662
aVoverlooked
p3663
aVrulers
p3664
aVbelong
p3665
aVshuttered
p3666
aVused
p3667
aVtemporary
p3668
aVoverweight
p3669
aVuses
p3670
aVuser
p3671
aVcityscape
p3672
aVplugs
p3673
aVbrussels
p3674
aVwedged
p3675
aVgrind
p3676
aVwedges
p3677
aVquarters
p3678
aVpraying
p3679
aVafro
p3680
aVhelping
p3681
aVcanisters
p3682
aVbarack
p3683
aVmarch
p3684
aVenthusiastically
p3685
aVsignal
p3686
aVminced
p3687
aVbrakes
p3688
aVcreation
p3689
aVtrendy
p3690
aVmustang
p3691
aVcgi
p3692
aVrun
p3693
aVrub
p3694
aVprocessing
p3695
aVrug
p3696
aVrue
p3697
aValleyway
p3698
aVpitchers
p3699
aVcigarette
p3700
aVtrucking
p3701
aVseeing
p3702
aVsprawled
p3703
aVrolls
p3704
aVpassanger
p3705
aVheritage
p3706
aVhimself
p3707
aVpedestals
p3708
aVrussian
p3709
aVchromed
p3710
aVadults
p3711
aVflush
p3712
aVpattered
p3713
aVcotton
p3714
aVpoliticians
p3715
aVspectators
p3716
aVrequires
p3717
aVevenly
p3718
aVgo
p3719
aVass
p3720
aVbaron
p3721
aVwizard
p3722
aVarid
p3723
aVattired
p3724
aVripened
p3725
aVkitty
p3726
aVthermos
p3727
aVasparagus
p3728
aVtokyo
p3729
aVclick
p3730
aVcupcakes
p3731
aVrotten
p3732
aVexperiment
p3733
aVrotted
p3734
aVfocuses
p3735
aVstance
p3736
aVgilded
p3737
aVfocused
p3738
aVproducts
p3739
aVexamining
p3740
aVsparklers
p3741
aVapples
p3742
aVcloud
p3743
aVstrapped
p3744
aVreflects
p3745
aVstatutes
p3746
aVmissile
p3747
aVgraffit
p3748
aVarched
p3749
aVdonut
p3750
aVarches
p3751
aVdrops
p3752
aVhalloween
p3753
aVcots
p3754
aVcampers
p3755
aVlocated
p3756
aVpink
p3757
aVentree
p3758
aVbillows
p3759
aVspelling
p3760
aVcorral
p3761
aVnecklaces
p3762
aVbathing
p3763
aVpine
p3764
aVyoungster
p3765
aVsword
p3766
aVauto
p3767
aVpins
p3768
aVstading
p3769
aVmode
p3770
aVpools
p3771
aVnibbles
p3772
aVupward
p3773
aVfingerling
p3774
aVchunk
p3775
aVshoppe
p3776
aVinverted
p3777
aVsands
p3778
aVsandy
p3779
aVreacts
p3780
aVdiagonal
p3781
aVroute
p3782
aVkeep
p3783
aVwading
p3784
aVdesigned
p3785
aVattach
p3786
aVattack
p3787
aVmotorcyle
p3788
aVfuzzy
p3789
aVherself
p3790
aVphotograph
p3791
aVben
p3792
aVbed
p3793
aVbee
p3794
aVproviding
p3795
aVkitties
p3796
aVexhibit
p3797
aVlightly
p3798
aVcarrots
p3799
aVborder
p3800
aVsprinkles
p3801
aVsprinkler
p3802
aVsprinkled
p3803
aVvisor
p3804
aVplugging
p3805
aVbusinessman
p3806
aVkiddie
p3807
aVparked
p3808
aVentryway
p3809
aVfuel
p3810
aVsurfs
p3811
aVslows
p3812
aVcrumbling
p3813
aVtrashcans
p3814
aVshe
p3815
aVmarshy
p3816
aVwritten
p3817
aVhorrible
p3818
aVflickr
p3819
aVnutritious
p3820
aVattention
p3821
aVmunching
p3822
aVapproval
p3823
aVseperating
p3824
aVjersey
p3825
aVaddition
p3826
aVreleasing
p3827
aVkicks
p3828
aVboxcars
p3829
aVbrunch
p3830
aVnovel
p3831
aVripen
p3832
aVresident
p3833
aVlambs
p3834
aVreflection
p3835
aVi
p3836
aVmodeled
p3837
aVflexing
p3838
aVtaller
p3839
aVextends
p3840
aVkick
p3841
aVsonic
p3842
aVhistoric
p3843
aVharbour
p3844
aVprominent
p3845
aVsizes
p3846
aVcandy
p3847
aVcontrollers
p3848
aVtiaras
p3849
aVmedieval
p3850
aVdecline
p3851
aVeatables
p3852
aVreptile
p3853
aVmushrooms
p3854
aVcongregate
p3855
aVgerbil
p3856
aVinner
p3857
aVnotices
p3858
aVsuzuki
p3859
aVbackhand
p3860
aVghost
p3861
aVpilled
p3862
aVhp
p3863
aVhi
p3864
aVha
p3865
aVhd
p3866
aVhe
p3867
aVcarriage
p3868
aVlimit
p3869
aVmechanics
p3870
aVurns
p3871
aVtwist
p3872
aVbalcony
p3873
aVteacups
p3874
aVnintendo
p3875
aVstraws
p3876
aVfronts
p3877
aVremodeled
p3878
aVonstage
p3879
aVrescue
p3880
aVrailways
p3881
aValpine
p3882
aVclothed
p3883
aVgreenish
p3884
aVuncooked
p3885
aVheading
p3886
aVclothes
p3887
aVskatebaord
p3888
aVlavender
p3889
aVcolourful
p3890
aVnew
p3891
aVnet
p3892
aVnever
p3893
aVcardboard
p3894
aVbuckled
p3895
aVpiercing
p3896
aVparasailer
p3897
aVvinyl
p3898
aVcounty
p3899
aVbusses
p3900
aVhandlebar
p3901
aVtype
p3902
aVtell
p3903
aVexpose
p3904
aVshelters
p3905
aVrights
p3906
aVfoliage
p3907
aVsquirting
p3908
aVgive
p3909
aVwrenches
p3910
aVbutting
p3911
aVkeyboard
p3912
aVsoaking
p3913
aVfederer
p3914
aVpanini
p3915
aVmotoring
p3916
aVacoustic
p3917
aVluck
p3918
aVadobe
p3919
aVenthusiasts
p3920
aVtaught
p3921
aVwiith
p3922
aVdawn
p3923
aVcollector
p3924
aVenclosure
p3925
aVsurprise
p3926
aVgrease
p3927
aVgreasy
p3928
aVaisle
p3929
aVlogging
p3930
aVmessages
p3931
aVhoop
p3932
aVhook
p3933
aVhoof
p3934
aVhood
p3935
aVhydrant
p3936
aVstruts
p3937
aVgirls
p3938
aVstocking
p3939
aVmatter
p3940
aVboaters
p3941
aVbuggies
p3942
aVmedical
p3943
aVpoints
p3944
aVpointy
p3945
aVdoves
p3946
aVvisitor
p3947
aVthirds
p3948
aVjudges
p3949
aVfolded
p3950
aVjudged
p3951
aVfolder
p3952
aVstop
p3953
aVfields
p3954
aVreference
p3955
aVzones
p3956
aVpebbles
p3957
aVscrap
p3958
aVprince
p3959
aVsorts
p3960
aVmodeling
p3961
aVpicking
p3962
aVhygiene
p3963
aVsprings
p3964
aVdusting
p3965
aVfirsbee
p3966
aVsunshine
p3967
aVtank
p3968
aVlizard
p3969
aVneat
p3970
aVmotorist
p3971
aVanchor
p3972
aVchilling
p3973
aVmetropolitan
p3974
aVis
p3975
aVsanitizer
p3976
aVit
p3977
aVii
p3978
aVim
p3979
aVclinging
p3980
aVin
p3981
aVid
p3982
aVif
p3983
aVbottles
p3984
aVsidelines
p3985
aVwaterfall
p3986
aVpractices
p3987
aVsporting
p3988
aVsunflower
p3989
aVdepicts
p3990
aVglassware
p3991
aVclementine
p3992
aVpoolside
p3993
aVtheatre
p3994
aVdaytime
p3995
aVbackhoe
p3996
aVdunkin
p3997
aVburn
p3998
aVfiremen
p3999
aVkeeper
p4000
aVdunking
p4001
aVyelling
p4002
aVsprinklers
p4003
aVazure
p4004
aVcarting
p4005
aVrockaway
p4006
aVrearview
p4007
aVpair
p4008
aVfork
p4009
aVform
p4010
aVfoilage
p4011
aVfireworks
p4012
aVfore
p4013
aVford
p4014
aVgarments
p4015
aVpenned
p4016
aVfort
p4017
aVpavilion
p4018
aVhikers
p4019
aVsticks
p4020
aVclassic
p4021
aVsticky
p4022
aVgracefully
p4023
aVfashioned
p4024
aVship
p4025
aVcommuting
p4026
aVshit
p4027
aVdigital
p4028
aVribbons
p4029
aVfelt
p4030
aVdiet
p4031
aVfell
p4032
aVuneaten
p4033
aVwoodwork
p4034
aVskis
p4035
aVskii
p4036
aVskim
p4037
aVskin
p4038
aVyummy
p4039
aVmarks
p4040
aVstring
p4041
aVstaples
p4042
aVmagnet
p4043
aVstapled
p4044
aVbrownish
p4045
aVshave
p4046
aVolympic
p4047
aVtransportation
p4048
aVzombie
p4049
aVseawall
p4050
aVthre
p4051
aVinsides
p4052
aVarmchairs
p4053
aVthru
p4054
aVolive
p4055
aVeffort
p4056
aVwalled
p4057
aVwallet
p4058
aVgrowing
p4059
aVgrained
p4060
aVcrazy
p4061
aVhippo
p4062
aVtoasters
p4063
aVsurfers
p4064
aVrays
p4065
aVping
p4066
aVsundae
p4067
aVsunday
p4068
aVskater
p4069
aVskates
p4070
aVtile
p4071
aVpathway
p4072
aVpint
p4073
aVdesigner
p4074
aVguys
p4075
aVgrow
p4076
aVoutline
p4077
aVmaybe
p4078
aVprovide
p4079
aVthorny
p4080
aVjail
p4081
aVbiplane
p4082
aVgesture
p4083
aVcute
p4084
aVpointed
p4085
aVterrace
p4086
aVcuts
p4087
aVmarshmallows
p4088
aVsmoothie
p4089
aVtexas
p4090
aVtouching
p4091
aVmismatched
p4092
aVyield
p4093
aVearlier
p4094
aVmonster
p4095
aVmovable
p4096
aVunderwear
p4097
aVunfrosted
p4098
aVlanguage
p4099
aVdrizzling
p4100
aVstreeet
p4101
aVexotic
p4102
aVdwelling
p4103
aVlone
p4104
aVlong
p4105
aVcarry
p4106
aVplains
p4107
aVpaved
p4108
aVcracks
p4109
aVbrowning
p4110
aVvictorian
p4111
aVknives
p4112
aVwere
p4113
aVgigantic
p4114
aVtractor
p4115
aVcoconut
p4116
aVcamouflaged
p4117
aVdollop
p4118
aVmarijuana
p4119
aVmitts
p4120
aVsittingon
p4121
aVcreatively
p4122
aVpersonalized
p4123
aVskinned
p4124
aVpain
p4125
aVpail
p4126
aVpaid
p4127
aVbeachfront
p4128
aVfills
p4129
aVgyro
p4130
aVnapkin
p4131
aVgrassland
p4132
aVfiled
p4133
aVcontemporary
p4134
aVcurled
p4135
aVpump
p4136
aVblack
p4137
aVraising
p4138
aVspraying
p4139
aVframing
p4140
aVblurred
p4141
aVcalendar
p4142
aVbehind
p4143
aVchews
p4144
aVreading
p4145
aVchecks
p4146
aVoversized
p4147
aVtux
p4148
aVtun
p4149
aVtub
p4150
aVrugby
p4151
aVaccording
p4152
aVmulticolor
p4153
aVdated
p4154
aVholders
p4155
aVarts
p4156
aVcaricature
p4157
aVbarry
p4158
aVrancher
p4159
aVborders
p4160
aVtug
p4161
aVgraveyard
p4162
aVoffered
p4163
aVbmw
p4164
aVbmx
p4165
aVcaptivity
p4166
aVdisconnected
p4167
aVbathe
p4168
aVcrepes
p4169
aVrubbing
p4170
aVmiddle
p4171
aVferns
p4172
aVreceptacle
p4173
aVsame
p4174
aVmunch
p4175
aVinbetween
p4176
aVtotally
p4177
aVdrain
p4178
aVbicyclists
p4179
aVamazed
p4180
aVdipped
p4181
aVelaborately
p4182
aVdocks
p4183
aVblankets
p4184
aVrocky
p4185
aVchamber
p4186
aVaudience
p4187
aVthighs
p4188
aVdrainage
p4189
aVdoll
p4190
aVdole
p4191
aVgross
p4192
aVpared
p4193
aVovens
p4194
aVseconds
p4195
aVunusual
p4196
aVbroken
p4197
aVdrums
p4198
aVroaming
p4199
aVstations
p4200
aVisland
p4201
aVlands
p4202
aVbuggy
p4203
aVwiping
p4204
aVbookstore
p4205
aVcacti
p4206
aVstrawberry
p4207
aVnetting
p4208
aVsuitcase
p4209
aVvideos
p4210
aVgirlfriend
p4211
aVhybrid
p4212
aVfield
p4213
aVlapel
p4214
aVstudents
p4215
aVbrands
p4216
aVremote
p4217
aVroams
p4218
aVstarting
p4219
aVgrowling
p4220
aVsuburban
p4221
aVtalks
p4222
aVthose
p4223
aVscout
p4224
aVfall
p4225
aVmothers
p4226
aVtitled
p4227
aVknitted
p4228
aVpropellors
p4229
aVstood
p4230
aVstorks
p4231
aVstool
p4232
aVstoop
p4233
aVsurfer
p4234
aVbeacon
p4235
aVoperating
p4236
aVsearch
p4237
aVtortoise
p4238
aVairport
p4239
aVnarrow
p4240
aVmilks
p4241
aVtransit
p4242
aVarmed
p4243
aVcontrolling
p4244
aVtown
p4245
aVnone
p4246
aVdes
p4247
aVdew
p4248
aVdel
p4249
aVden
p4250
aVstemware
p4251
aVmarble
p4252
aVcompare
p4253
aVpurchased
p4254
aVpotatos
p4255
aVcocking
p4256
aVladle
p4257
aVdrainer
p4258
aVcharms
p4259
aVpetite
p4260
aVflorescent
p4261
aVblood
p4262
aVbloom
p4263
aVcoat
p4264
aVdoctor
p4265
aVcoal
p4266
aVpleasure
p4267
aVstains
p4268
aVdough
p4269
aVsleepily
p4270
aVpens
p4271
aVhandheld
p4272
aVlate
p4273
aVdolly
p4274
aVpenn
p4275
aVdolls
p4276
aVseeking
p4277
aVmales
p4278
aVwalls
p4279
aVstepped
p4280
aVchairlift
p4281
aVgoofy
p4282
aVclamp
p4283
aVclams
p4284
aVnunchuck
p4285
aVidea
p4286
aVpigeon
p4287
aVprojected
p4288
aVparticipants
p4289
aVbistro
p4290
aVpleasant
p4291
aVentrancing
p4292
aVdribbles
p4293
aVcorkscrew
p4294
aVutilizes
p4295
aVnetted
p4296
aVcampground
p4297
aVgripping
p4298
aVtwenty
p4299
aVgoodies
p4300
aVpaint
p4301
aVmama
p4302
aVpeple
p4303
aVneedle
p4304
aVduct
p4305
aVstirs
p4306
aVb
p4307
aVfold
p4308
aVinteractive
p4309
aVpaths
p4310
aVrowed
p4311
aVfolders
p4312
aVcramped
p4313
aVthomas
p4314
aVscattered
p4315
aVhillside
p4316
aVkitche
p4317
aVcarefully
p4318
aVferret
p4319
aVbatter
p4320
aVgated
p4321
aVtended
p4322
aVindividual
p4323
aVtender
p4324
aVhalved
p4325
aVbellied
p4326
aVhalves
p4327
aVenvelopes
p4328
aVpropellor
p4329
aVpagoda
p4330
aVdrawings
p4331
aVfloats
p4332
aValot
p4333
aVsupply
p4334
aVrecycling
p4335
aVnewborn
p4336
aVthroughout
p4337
aVpatiently
p4338
aVcreate
p4339
aVbackround
p4340
aV4
p4341
aVunderstand
p4342
aVneckties
p4343
aVfur
p4344
aVbill
p4345
aVfun
p4346
aVcents
p4347
aVcathay
p4348
aVswishing
p4349
aVmonroe
p4350
aVleafed
p4351
aVitch
p4352
aVassignment
p4353
aVdesks
p4354
aVmoment
p4355
aVsandals
p4356
aVcelebratory
p4357
aVy
p4358
aVspend
p4359
aVshouting
p4360
aVbridal
p4361
aVexcited
p4362
aVmatters
p4363
aVglove
p4364
aVback
p4365
aVexamples
p4366
aVontop
p4367
aVpet
p4368
aVpew
p4369
aVper
p4370
aVpen
p4371
aVsneakers
p4372
aVpee
p4373
aVpeg
p4374
aVpea
p4375
aVnose
p4376
aVbeans
p4377
aVfrog
p4378
aVjockey
p4379
aVhomemade
p4380
aVforward
p4381
aVbored
p4382
aVadjusting
p4383
aVlifeguard
p4384
aVpossession
p4385
aVfogged
p4386
aVplugged
p4387
aVexplaining
p4388
aVadmiring
p4389
aVroping
p4390
aVstroller
p4391
aVloungers
p4392
aVoverly
p4393
aVgolfer
p4394
aVpeanut
p4395
aVchaps
p4396
aVgravel
p4397
aVflagstone
p4398
aVputting
p4399
aVseverely
p4400
aVdoggy
p4401
aVknight
p4402
aVchoppy
p4403
aVcrow
p4404
aVcrop
p4405
aVstrategically
p4406
aVgiving
p4407
aVanywhere
p4408
aVkayaker
p4409
aVjockeys
p4410
aVstalks
p4411
aVdrank
p4412
aVnamed
p4413
aVprivate
p4414
aVnames
p4415
aVoval
p4416
aVoils
p4417
aVthemselves
p4418
aVthatch
p4419
aVtattered
p4420
aVarranging
p4421
aVharvest
p4422
aVprohibiting
p4423
aVhangar
p4424
aVwinners
p4425
aVfeta
p4426
aVbuildings
p4427
aVminivan
p4428
aVmeter
p4429
aVstruggles
p4430
aVhugged
p4431
aVbunch
p4432
aVlg
p4433
aVla
p4434
aVlo
p4435
aVpoeple
p4436
aVmarsh
p4437
aVairports
p4438
aVlingerie
p4439
aVgazing
p4440
aVannouncer
p4441
aVwholly
p4442
aVelectronics
p4443
aVref
p4444
aVred
p4445
aVsalami
p4446
aVretrieves
p4447
aVreceipts
p4448
aVretail
p4449
aVgirafee
p4450
aVhurdle
p4451
aVafield
p4452
aVwindsurfers
p4453
aVmonkey
p4454
aVpots
p4455
aVbalck
p4456
aVmessing
p4457
aVshampoo
p4458
aVwashers
p4459
aVtidy
p4460
aVcomfortable
p4461
aVpatting
p4462
aVcomfortably
p4463
aVmooring
p4464
aVscrubs
p4465
aVnecklace
p4466
aVeight
p4467
aVhandbag
p4468
aVenthusiastic
p4469
aVworkspace
p4470
aVplanks
p4471
aVareas
p4472
aVcrabs
p4473
aVorgan
p4474
aVashtray
p4475
aVpuddle
p4476
aVshelfs
p4477
aVfootlong
p4478
aVpurses
p4479
aVicecream
p4480
aVfreely
p4481
aVbusted
p4482
aVpassing
p4483
aVglorious
p4484
aVovercoat
p4485
aVlaugh
p4486
aVbespectacled
p4487
aVpouring
p4488
aVmuddy
p4489
aVjuggles
p4490
aVairplanes
p4491
aVsplits
p4492
aVrespected
p4493
aVarabic
p4494
aVshuttle
p4495
aVoranges
p4496
aVcroissants
p4497
aVcenter
p4498
aVweapon
p4499
aVrestuarant
p4500
aVcoaster
p4501
aVflea
p4502
aVseats
p4503
aVprotecting
p4504
aVbench
p4505
aVcitizen
p4506
aVraven
p4507
aVtests
p4508
aVfootstool
p4509
aVinsert
p4510
aVworks
p4511
aVpaddock
p4512
aVdunes
p4513
aVshelter
p4514
aVpanes
p4515
aVslight
p4516
aVpanel
p4517
aVtackle
p4518
aVdoesnt
p4519
aVfirefighter
p4520
aVbuy
p4521
aVbus
p4522
aVbut
p4523
aVbun
p4524
aVbookshelf
p4525
aVbug
p4526
aVbud
p4527
aVmisty
p4528
aVwise
p4529
aVvariations
p4530
aVminutes
p4531
aVrabbits
p4532
aVbrochures
p4533
aVvirtual
p4534
aVjeeps
p4535
aVledge
p4536
aVgranite
p4537
aVdraught
p4538
aVvariation
p4539
aVsemis
p4540
aVskiboard
p4541
aVbaker
p4542
aVbakes
p4543
aVhiker
p4544
aVhikes
p4545
aVbaked
p4546
aVrepresent
p4547
aVhats
p4548
aVhate
p4549
aVtrolley
p4550
aVpride
p4551
aVfishbowl
p4552
aVevery
p4553
aVconfetti
p4554
aVenjoy
p4555
aVscribbled
p4556
aVstreet
p4557
aVshining
p4558
aVbeaten
p4559
aVsheeted
p4560
aVpats
p4561
aVhundreds
p4562
aVpate
p4563
aVpath
p4564
aVauction
p4565
aVdeers
p4566
aVambulances
p4567
aVvisible
p4568
aVoutdated
p4569
aVme
p4570
aVjoin
p4571
aVmm
p4572
aVmt
p4573
aVmr
p4574
aVentertainer
p4575
aVmy
p4576
aVtaxiway
p4577
aVweathervane
p4578
aVend
p4579
aVslalom
p4580
aVrhinoceros
p4581
aVcharging
p4582
aVmess
p4583
aVmesh
p4584
aVsparkler
p4585
aVsparkles
p4586
aVcroissant
p4587
aVspout
p4588
aVloader
p4589
aVenter
p4590
aVflippers
p4591
aVclocktower
p4592
aVdalmation
p4593
aVpinkish
p4594
aVfilling
p4595
aVvictory
p4596
aVsigning
p4597
aVgymnasium
p4598
aVmagnets
p4599
aVgoo
p4600
aVgod
p4601
aVwashed
p4602
aVgot
p4603
aVwasher
p4604
aVwashes
p4605
aValready
p4606
aVknifes
p4607
aVpotty
p4608
aVceiling
p4609
aVtool
p4610
aVserve
p4611
aVtook
p4612
aVwestern
p4613
aVbrushed
p4614
aVburger
p4615
aVexpo
p4616
aVdonkey
p4617
aVfashion
p4618
aVtalking
p4619
aVleafs
p4620
aVkiteboard
p4621
aVleafy
p4622
aVharper
p4623
aVsteamboat
p4624
aVcoil
p4625
aVcoin
p4626
aVpeers
p4627
aVtreats
p4628
aVsoups
p4629
aVflow
p4630
aVorderly
p4631
aVenterprise
p4632
aVarrayed
p4633
aVsharpie
p4634
aVzipping
p4635
aVmixture
p4636
aVsunglasses
p4637
aVcountries
p4638
aVdips
p4639
aVtwice
p4640
aVshots
p4641
aVduck
p4642
aVswept
p4643
aVliquor
p4644
aVnun
p4645
aVgladiator
p4646
aVinterviewing
p4647
aV360
p4648
aVhandwritten
p4649
aVaquarium
p4650
aVflowering
p4651
aVranges
p4652
aVprotect
p4653
aVparticipating
p4654
aVmerging
p4655
aVlayered
p4656
aVtowels
p4657
aVbeef
p4658
aVbikinis
p4659
aVropes
p4660
aVbeen
p4661
aVbeer
p4662
aVbees
p4663
aVbeet
p4664
aVroped
p4665
aVpinking
p4666
aVuncommon
p4667
aVkingfisher
p4668
aVteachers
p4669
aVcontaining
p4670
aVwound
p4671
aVutilitarian
p4672
aVcomplex
p4673
aVcarnation
p4674
aVseveral
p4675
aVpapaya
p4676
aVstandng
p4677
aVshadowed
p4678
aVpharmacy
p4679
aVtechnological
p4680
aVturquoise
p4681
aVbands
p4682
aVsanitary
p4683
aVapart
p4684
aVintertwined
p4685
aVgift
p4686
aVspecific
p4687
aVmosquito
p4688
aVmeters
p4689
aVescape
p4690
aVice
p4691
aVicy
p4692
aVchristmas
p4693
aVcord
p4694
aVcore
p4695
aVgarnishes
p4696
aVcorn
p4697
aVcork
p4698
aVgarnished
p4699
aVsurround
p4700
aVprimitive
p4701
aVcafeteria
p4702
aVhead
p4703
aVmedium
p4704
aVsurfboarders
p4705
aVheat
p4706
aVhear
p4707
aVheap
p4708
aVumping
p4709
aVadorn
p4710
aVbrightly
p4711
aVpipe
p4712
aVoutstretched
p4713
aVno
p4714
aVnd
p4715
aVne
p4716
aVny
p4717
aVnw
p4718
aVevergreen
p4719
aVeiffel
p4720
aVtrailers
p4721
aVdappled
p4722
aVbullet
p4723
aVbackward
p4724
aVdisplaying
p4725
aVbalding
p4726
aVcontemplating
p4727
aVflowered
p4728
aVbroadly
p4729
aVtowl
p4730
aVsloppy
p4731
aVpartitions
p4732
aVwitting
p4733
aVtakeoff
p4734
aVbake
p4735
aVspire
p4736
aVgroups
p4737
aVthirty
p4738
aVpearls
p4739
aVtows
p4740
aVsharpening
p4741
aVcinnamon
p4742
aVweird
p4743
aVlowers
p4744
aVthrees
p4745
aV1st
p4746
aVstacking
p4747
aVkerry
p4748
aVshare
p4749
aVchocolate
p4750
aVaircrafts
p4751
aVperformer
p4752
aVdropped
p4753
aVhydrogen
p4754
aVspeaks
p4755
aVflavored
p4756
aVballroom
p4757
aVgranddaughter
p4758
aVmotorists
p4759
aVtipped
p4760
aVblocked
p4761
aVcourthouse
p4762
aVcutter
p4763
aVconversations
p4764
aVfeathered
p4765
aVopera
p4766
aVhashbrowns
p4767
aVzebra
p4768
aVbegun
p4769
aVattracted
p4770
aVcloves
p4771
aVclover
p4772
aVteammates
p4773
aVbudweiser
p4774
aVsoaring
p4775
aVpokemon
p4776
aVsurveys
p4777
aVconvention
p4778
aVhug
p4779
aVhub
p4780
aVhut
p4781
aVartsy
p4782
aVholder
p4783
aVsidecars
p4784
aVr
p4785
aVpre
p4786
aVarmored
p4787
aVann
p4788
aVmates
p4789
aVans
p4790
aVany
p4791
aVdining
p4792
aVthermometer
p4793
aVhorsed
p4794
aVfalls
p4795
aVvisitors
p4796
aVbluebird
p4797
aVatvs
p4798
aVperch
p4799
aVapplauding
p4800
aVrecipe
p4801
aVdandelions
p4802
aVsouthwestern
p4803
aVwoolen
p4804
aVearing
p4805
aVbegging
p4806
aVregarding
p4807
aVpenguins
p4808
aVbought
p4809
aVreveals
p4810
aVpicnic
p4811
aVsimmering
p4812
aVability
p4813
aVbicyclist
p4814
aVregion
p4815
aVcolor
p4816
aVsampling
p4817
aVpole
p4818
aVpolo
p4819
aVpoll
p4820
aVrunaway
p4821
aVcoupe
p4822
aVcords
p4823
aVhardly
p4824
aVcresting
p4825
aVpaying
p4826
aVpuncher
p4827
aVsomeone
p4828
aVhelmet
p4829
aVbooths
p4830
aVdevoid
p4831
aVchanging
p4832
aVimplements
p4833
aVmodel
p4834
aVmodem
p4835
aVguided
p4836
aVguides
p4837
aVwomans
p4838
aVpallet
p4839
aVpoised
p4840
aVkingdom
p4841
aVmanuever
p4842
aVvirginia
p4843
aVtest
p4844
aVsheared
p4845
aVstandstill
p4846
aVbuddies
p4847
aVgras
p4848
aVwaiving
p4849
aVpacific
p4850
aVcowboys
p4851
aVprovided
p4852
aVshirtless
p4853
aVprovides
p4854
aVjuices
p4855
aVcommunicate
p4856
aVwades
p4857
aVok
p4858
aVoj
p4859
aVof
p4860
aVod
p4861
aVox
p4862
aVot
p4863
aVos
p4864
aVop
p4865
aVeveryone
p4866
aVjug
p4867
aVchomping
p4868
aVilluminates
p4869
aVgrungy
p4870
aVapplying
p4871
aVanchovies
p4872
aVbicycling
p4873
aVidiot
p4874
aVincludes
p4875
aVlovers
p4876
aVbounded
p4877
aVincluded
p4878
aVodds
p4879
aVcurve
p4880
aVcurvy
p4881
aVrimmed
p4882
aVsurgical
p4883
aVparmesan
p4884
aVfollow
p4885
aVprogram
p4886
aVpresentation
p4887
aVbelonging
p4888
aVwoman
p4889
aVsimpsons
p4890
aVbubbles
p4891
aVwilting
p4892
aVgrandfather
p4893
aVtrench
p4894
aVundone
p4895
aVteh
p4896
aVten
p4897
aVtea
p4898
aVted
p4899
aVtee
p4900
aVdesign
p4901
aVguns
p4902
aVdirections
p4903
aVoptions
p4904
aVsticking
p4905
aVtablecloths
p4906
aVscreens
p4907
aVtexts
p4908
aVarmoire
p4909
aVpolicemen
p4910
aVprotestors
p4911
aVblossoming
p4912
aVsectioned
p4913
aVairplane
p4914
aVoffspring
p4915
aVextinguisher
p4916
aVbreaking
p4917
aVhoisting
p4918
aVumpires
p4919
aVpanoramic
p4920
aVfooted
p4921
aVhandlebars
p4922
aVkitten
p4923
aVmission
p4924
aVglide
p4925
aVmight
p4926
aValter
p4927
aVunits
p4928
aVbigger
p4929
aVdifficult
p4930
aVmodernized
p4931
aVscratching
p4932
aVbraided
p4933
aVhealth
p4934
aVprecariously
p4935
aVcaucasian
p4936
aVknelling
p4937
aVteach
p4938
aVcircuit
p4939
aVthrows
p4940
aVunhealthy
p4941
aVblank
p4942
aVtemperature
p4943
aVrails
p4944
aVcollar
p4945
aVswarm
p4946
aVattendants
p4947
aVuncut
p4948
aVcompartment
p4949
aVtravels
p4950
aVinstruction
p4951
aVdispenser
p4952
aVuniforms
p4953
aVhexagonal
p4954
aVrugs
p4955
aVgutted
p4956
aVcargo
p4957
aVmeasured
p4958
aVbarbie
p4959
aVasphalt
p4960
aVballplayer
p4961
aVstoned
p4962
aVdeserts
p4963
aVsecuring
p4964
aVheavily
p4965
aVpenalty
p4966
aVbeards
p4967
aVactivity
p4968
aVsnowstorm
p4969
aVtarps
p4970
aVcolander
p4971
aVforlorn
p4972
aVcreme
p4973
aVrared
p4974
aVkorea
p4975
aVrecently
p4976
aVbronze
p4977
aVlicense
p4978
aVflies
p4979
aVflier
p4980
aVsmith
p4981
aVduo
p4982
aVpc
p4983
aVpf
p4984
aVbrick
p4985
aVpm
p4986
aVtoga
p4987
aVbatch
p4988
aVparachutes
p4989
aVtheres
p4990
aVleans
p4991
aVparading
p4992
aVsliver
p4993
aVarrives
p4994
aVmountain
p4995
aVarrived
p4996
aVbirch
p4997
aVknack
p4998
aVlower
p4999
aVbounces
p5000
aVergonomic
p5001
aVpigeons
p5002
aVcompetitive
p5003
aVdoughnut
p5004
aVloading
p5005
aVplateau
p5006
aVdvds
p5007
aVairshow
p5008
aVinstruments
p5009
aVstreaming
p5010
aVtends
p5011
aVjumps
p5012
aVwineglass
p5013
aVmustached
p5014
aVcanal
p5015
aVfast
p5016
aVvendors
p5017
aVmountains
p5018
aVdeployed
p5019
aVfries
p5020
aVfried
p5021
aVassociated
p5022
aVlemon
p5023
aVwakeboarding
p5024
aVpottery
p5025
aVpotters
p5026
aVdeparts
p5027
aVnasa
p5028
aVdodging
p5029
aVsteve
p5030
aVissues
p5031
aVdisposal
p5032
aVstable
p5033
aVwaiters
p5034
aVavid
p5035
aVdrinking
p5036
aVfolds
p5037
aVbenchs
p5038
aVcheckers
p5039
aVpushing
p5040
aVreds
p5041
aVboasts
p5042
aVuse
p5043
aVusb
p5044
aVusa
p5045
aV&
p5046
aVrackett
p5047
aVrackets
p5048
aVfew
p5049
aVdepicted
p5050
aVfez
p5051
aVparliament
p5052
aVmusician
p5053
aVlumber
p5054
aVdripping
p5055
aVcarrot
p5056
aVsomething
p5057
aVunited
p5058
aVdecaying
p5059
aVsweat
p5060
aVpuppets
p5061
aVcupboard
p5062
aVmasks
p5063
aVbarricaded
p5064
aVstraps
p5065
aVmartini
p5066
aVlooks
p5067
aVlounge
p5068
aVships
p5069
aVnostalgic
p5070
aVturban
p5071
aVorange
p5072
aVmakings
p5073
aVemerald
p5074
aVdisarray
p5075
aVvcr
p5076
aVperforms
p5077
aVphrases
p5078
aVmanicured
p5079
aVbouquet
p5080
aVsteams
p5081
aVrigs
p5082
aVphotoshopped
p5083
aVshallow
p5084
aVslides
p5085
aVslider
p5086
aVboring
p5087
aVpatients
p5088
aVmogul
p5089
aVintersecting
p5090
aVsittign
p5091
aVsanitizers
p5092
aVvegetation
p5093
aVcombat
p5094
aVlooked
p5095
aVburners
p5096
aVfilmed
p5097
aVclutching
p5098
aVsunflowers
p5099
aVhitter
p5100
aVsparrows
p5101
aVfuturistic
p5102
aVunison
p5103
aVrafts
p5104
aVshedding
p5105
aVbarrels
p5106
aVstill
p5107
aVmeatballs
p5108
aVjunky
p5109
aVcake
p5110
aVaircraft
p5111
aVbronx
p5112
aVpackaging
p5113
aVmotorcyles
p5114
aVpainted
p5115
aVlayer
p5116
aVlayed
p5117
aVfrying
p5118
aVave
p5119
aVbunkbeds
p5120
aVtrailing
p5121
aVmember
p5122
aVbeast
p5123
aVfighting
p5124
aVscissor
p5125
aVbending
p5126
aVdressings
p5127
aVfishing
p5128
aVcurtained
p5129
aVnow
p5130
aVraincoats
p5131
aVloses
p5132
aVherons
p5133
aVmattresses
p5134
aVclydesdale
p5135
aVgrowth
p5136
aVcutters
p5137
aVsupple
p5138
aVmarkers
p5139
aVearrings
p5140
aVconveyer
p5141
aVshavings
p5142
aVextension
p5143
aVsaddle
p5144
aVowl
p5145
aVown
p5146
aVblanketed
p5147
aVgroomed
p5148
aVcontinental
p5149
aVcliff
p5150
aVdemonstrate
p5151
aVrickety
p5152
aVboardwalk
p5153
aVtrotting
p5154
aVpills
p5155
aVother
p5156
aVsloping
p5157
aVracehorse
p5158
aVmulch
p5159
aVupwards
p5160
aVgelato
p5161
aVpods
p5162
aVraining
p5163
aVfoul
p5164
aVfour
p5165
aVdeckered
p5166
aVsinking
p5167
aVpropane
p5168
aVoceans
p5169
aVleisurely
p5170
aVstabbed
p5171
aVfrizbee
p5172
aVornamental
p5173
aVirises
p5174
aVspecially
p5175
aVsailer
p5176
aVcart
p5177
aVelaborate
p5178
aVbrowse
p5179
aVstrike
p5180
aVfemales
p5181
aVtastefully
p5182
aVshelve
p5183
aVplunger
p5184
aVexample
p5185
aVomelets
p5186
aVbuliding
p5187
aVcaution
p5188
aVfeature
p5189
aVtypes
p5190
aVbaggage
p5191
aVwrought
p5192
aVplantains
p5193
aVeasier
p5194
aVslate
p5195
aVmimicking
p5196
aVslats
p5197
aVseries
p5198
aVrv
p5199
aVrd
p5200
aVre
p5201
aVfoundation
p5202
aVenormous
p5203
aVexposing
p5204
aVtempting
p5205
aVlifejacket
p5206
aVspeeds
p5207
aVbasketball
p5208
aVlunges
p5209
aVtrek
p5210
aVshowed
p5211
aVhyenas
p5212
aVtree
p5213
aVrusty
p5214
aVshower
p5215
aVrunner
p5216
aVshrubs
p5217
aVescalator
p5218
aVbleachers
p5219
aVsoaked
p5220
aVinstructs
p5221
aVamusing
p5222
aVdoors
p5223
aVgrips
p5224
aVrears
p5225
aVentry
p5226
aVdummy
p5227
aVcamp
p5228
aVcamo
p5229
aVmating
p5230
aVcame
p5231
aVinsects
p5232
aVparticipate
p5233
aVlessons
p5234
aVlayout
p5235
aVquaint
p5236
aVhonda
p5237
aVpocket
p5238
aVrelish
p5239
aVbackflip
p5240
aVspilling
p5241
aVdipping
p5242
aVperipheral
p5243
aVpads
p5244
aVsombrero
p5245
aVrings
p5246
aVyogurt
p5247
aVcubby
p5248
aVskimpy
p5249
aVbuiding
p5250
aVtolet
p5251
aVplanner
p5252
aVcountry
p5253
aVbodysuit
p5254
aVmunches
p5255
aVgleaming
p5256
aVgrazing
p5257
aVstadium
p5258
aVdots
p5259
aVworker
p5260
aVsubstance
p5261
aVworked
p5262
aVcontemplates
p5263
aVupscale
p5264
aVanticipating
p5265
aVviolin
p5266
aVdamaged
p5267
aVeuropean
p5268
aVphotographers
p5269
aVcrosstown
p5270
aVsimulated
p5271
aVcapitol
p5272
aVsleeps
p5273
aVsleepy
p5274
aVcraning
p5275
aVinnocent
p5276
aVhookah
p5277
aVdisrepair
p5278
aVwiht
p5279
aVcreek
p5280
aVtrombone
p5281
aVshaker
p5282
aVshakes
p5283
aVdefensive
p5284
aVlosing
p5285
aVpliers
p5286
aVgeisha
p5287
aVraised
p5288
aVfacility
p5289
aVson
p5290
aVmagazines
p5291
aVraises
p5292
aVwrap
p5293
aVsox
p5294
aVoften
p5295
aVwaits
p5296
aVsupport
p5297
aVoverhand
p5298
aVoverhang
p5299
aVmanmade
p5300
aVcanopied
p5301
aVotter
p5302
aVinside
p5303
aVdevices
p5304
aVtextbook
p5305
aVsprouts
p5306
aVglacier
p5307
aVgreenery
p5308
aVlollipops
p5309
aVmodels
p5310
aVcleaver
p5311
aVfastened
p5312
aVburritos
p5313
aVskate
p5314
aVskiing
p5315
aVmidst
p5316
aVbicycles
p5317
aVbicycler
p5318
aVicing
p5319
aVmultistory
p5320
aVleave
p5321
aVloads
p5322
aVcollage
p5323
aVsigh
p5324
aVsign
p5325
aVsoccor
p5326
aVparachuting
p5327
aVmelt
p5328
aVlazily
p5329
aVjunk
p5330
aVpassengers
p5331
aVbrilliant
p5332
aVtasks
p5333
aVfake
p5334
aVcrammed
p5335
aVturret
p5336
aVwicker
p5337
aVangry
p5338
aVscratched
p5339
aVclaus
p5340
aVeverywhere
p5341
aVscratches
p5342
aVmascot
p5343
aVpiles
p5344
aVpretend
p5345
aVstature
p5346
aVdetached
p5347
aVpumpkin
p5348
aVawesome
p5349
aVallowed
p5350
aVstole
p5351
aVmonitoring
p5352
aVbuttered
p5353
aVvancouver
p5354
aVlandmark
p5355
aVlids
p5356
aVnatural
p5357
aVsw
p5358
aVst
p5359
aVsi
p5360
aVso
p5361
aVsnowed
p5362
aVflips
p5363
aVdecals
p5364
aVtore
p5365
aVlimbs
p5366
aVtorn
p5367
aVtelevison
p5368
aVtwilight
p5369
aVsquare
p5370
aVbeetle
p5371
aVsquared
p5372
aVsquares
p5373
aVbumps
p5374
aVshores
p5375
aVbackside
p5376
aVopen
p5377
aVcity
p5378
aVboulevard
p5379
aVbite
p5380
aVstuffed
p5381
aVstreetlight
p5382
aVbits
p5383
aVroosts
p5384
aVcoats
p5385
aVtrekking
p5386
aVaddressing
p5387
aVgreyhound
p5388
aValley
p5389
aVburied
p5390
aVdownwards
p5391
aVwintery
p5392
aVinserted
p5393
aVwinters
p5394
aVarmrest
p5395
aVlawn
p5396
aVaverage
p5397
aVdrive
p5398
aVglaze
p5399
aVpeaches
p5400
aVbright
p5401
aVpriest
p5402
aVorchids
p5403
aVartistically
p5404
aVmoldy
p5405
aVcheckered
p5406
aVvertical
p5407
aVscreen
p5408
aVmans
p5409
aVmany
p5410
aVmand
p5411
aVmane
p5412
aVcaring
p5413
aVartichokes
p5414
aVbrocoli
p5415
aVcenterpiece
p5416
aVzippered
p5417
aVspotlight
p5418
aVpurse
p5419
aVivy
p5420
aVmissiles
p5421
aVwiring
p5422
aVwrappers
p5423
aVbarbed
p5424
aVsnowbank
p5425
aVbarber
p5426
aVhummingbird
p5427
aVmohawk
p5428
aVcustomized
p5429
aVrest
p5430
aVcilantro
p5431
aVcrusty
p5432
aVaround
p5433
aVcrusts
p5434
aVdark
p5435
aVvacuum
p5436
aVintel
p5437
aVinter
p5438
aVkennel
p5439
aVfives
p5440
aVpickled
p5441
aVlobster
p5442
aVfiretruck
p5443
aVslatted
p5444
aVcozy
p5445
aVpackage
p5446
aVlegged
p5447
aVhomeless
p5448
aVher
p5449
aVhes
p5450
aVbristles
p5451
aVsloped
p5452
aVslopes
p5453
aVhandsome
p5454
aVvehicles
p5455
aVpedestal
p5456
aVamused
p5457
aVtight
p5458
aVfours
p5459
aVterra
p5460
aVmask
p5461
aVmash
p5462
aVmast
p5463
aVmass
p5464
aVgingham
p5465
aVbirdcage
p5466
aVdebris
p5467
aVmna
p5468
aVtv
p5469
aVtp
p5470
aVto
p5471
aVtail
p5472
aVchewing
p5473
aVth
p5474
aVte
p5475
aVkneck
p5476
aVreturned
p5477
aVhooking
p5478
aVcable
p5479
aVjoined
p5480
aVlarge
p5481
aVharry
p5482
aVcrests
p5483
aVtrick
p5484
aVcontrails
p5485
aVrummaging
p5486
aVpulls
p5487
aVpears
p5488
aVpearl
p5489
aV6
p5490
aVfleece
p5491
aVmorgan
p5492
aVbidet
p5493
aVglowing
p5494
aVmusicians
p5495
aVwaves
p5496
aVauthentic
p5497
aVrefuse
p5498
aVregister
p5499
aVvolleyball
p5500
aVadorned
p5501
aVbrim
p5502
aVturbine
p5503
aVlaced
p5504
aVlaces
p5505
aVtoiletry
p5506
aVsucker
p5507
aVfound
p5508
aVupstairs
p5509
aVnumerals
p5510
aVreduce
p5511
aVmottled
p5512
aVdecoratively
p5513
aVcandlelight
p5514
aVfoal
p5515
aVrises
p5516
aVowners
p5517
aVcastle
p5518
aVfeeder
p5519
aVguest
p5520
aVjet
p5521
aVwarmly
p5522
aVtomatos
p5523
aVtomatoe
p5524
aVmural
p5525
aVfishermen
p5526
aVtaxis
p5527
aVmossy
p5528
aVpedestrian
p5529
aVknobs
p5530
aVdarth
p5531
aVaccepting
p5532
aVfaint
p5533
aVmicrosoft
p5534
aVchowder
p5535
aVgolf
p5536
aVgold
p5537
aVcruises
p5538
aVvader
p5539
aVfreight
p5540
aVwrites
p5541
aVclothesline
p5542
aVcompartmentalized
p5543
aVreporters
p5544
aVbanner
p5545
aVcrt
p5546
aVcoors
p5547
aVbulky
p5548
aVguinea
p5549
aVpickup
p5550
aVmonsters
p5551
aVenclosures
p5552
aVintercept
p5553
aVcomposting
p5554
aVdimensional
p5555
aVadjoining
p5556
aVfrosty
p5557
aVchurch
p5558
aVsouffle
p5559
aVcontentedly
p5560
aVresting
p5561
aVsquirrel
p5562
aVracer
p5563
aVraces
p5564
aVcoveralls
p5565
aVstraight
p5566
aVerror
p5567
aVfetching
p5568
aValert
p5569
aVeuro
p5570
aVperson
p5571
aVfeces
p5572
aVcabins
p5573
aVusing
p5574
aVdoily
p5575
aVforrest
p5576
aVdrizzled
p5577
aVreaders
p5578
aVadvertisements
p5579
aVattractive
p5580
aVeager
p5581
aVsydney
p5582
aVharvesting
p5583
aVjutting
p5584
aVaustralia
p5585
aVskateboards
p5586
aVbaskets
p5587
aVshading
p5588
aVformal
p5589
aVsorting
p5590
aVd
p5591
aVcontinue
p5592
aVscape
p5593
aVcrossbones
p5594
aVclipping
p5595
aVspring
p5596
aVlimb
p5597
aVpalm
p5598
aVcurious
p5599
aVsprint
p5600
aVpale
p5601
aVgarnishment
p5602
aVclinton
p5603
aVcolorado
p5604
aVexposed
p5605
aVsuit
p5606
aVinches
p5607
aVposter
p5608
aVposted
p5609
aVup
p5610
aVus
p5611
aVun
p5612
aVuk
p5613
aVstoring
p5614
aVpepperonis
p5615
aVgraceful
p5616
aVfixing
p5617
aVferries
p5618
aVpedestrians
p5619
aVholes
p5620
aVcrinkle
p5621
aVfresh
p5622
aVhaving
p5623
aVcheetos
p5624
aVscratch
p5625
aVknotted
p5626
aVenjoyable
p5627
aVyoung
p5628
aVstocked
p5629
aVpanting
p5630
aVmixing
p5631
aVwipe
p5632
aVtri
p5633
aVshetland
p5634
aVtry
p5635
aVrace
p5636
aVrack
p5637
aVhyde
p5638
aVspaghetti
p5639
aVsauerkraut
p5640
aVdelicous
p5641
aVrichmond
p5642
aVpunch
p5643
aVdressed
p5644
aVnapping
p5645
aVcasing
p5646
aVtechnical
p5647
aVbazaar
p5648
aVchocolates
p5649
aVmidday
p5650
aVrubbish
p5651
aVpracticing
p5652
aVslid
p5653
aVpawn
p5654
aVslim
p5655
aVslit
p5656
aVslip
p5657
aVpaws
p5658
aVlunchbox
p5659
aVdominos
p5660
aVfits
p5661
aVcabbage
p5662
aVhawk
p5663
aVdaring
p5664
aVtomato
p5665
aVcounter
p5666
aVelement
p5667
aVclassy
p5668
aVantelope
p5669
aVmove
p5670
aVartichoke
p5671
aVbrahma
p5672
aVdecal
p5673
aV2010
p5674
aV2013
p5675
aV2012
p5676
aVoutlined
p5677
aVdock
p5678
aVpresidential
p5679
aVminimalist
p5680
aVsniffing
p5681
aVprarie
p5682
aVstock
p5683
aVmets
p5684
aVtents
p5685
aVexpectantly
p5686
aVgraze
p5687
aVluggages
p5688
aVyells
p5689
aVstark
p5690
aVsystem
p5691
aVgraffitied
p5692
aVgummy
p5693
aVshorts
p5694
aVrickshaw
p5695
aVmanhole
p5696
aVtrike
p5697
aVsplayed
p5698
aVcollecting
p5699
aVgently
p5700
aVgentle
p5701
aVcarraige
p5702
aVvace
p5703
aVlivingroom
p5704
aVskulls
p5705
aVmills
p5706
aVwaffles
p5707
aVastride
p5708
aVashore
p5709
aVkorean
p5710
aVlily
p5711
aVcourtesy
p5712
aVsegment
p5713
aVface
p5714
aVmechanical
p5715
aVpainting
p5716
aVbring
p5717
aVkeys
p5718
aVshould
p5719
aVbuttons
p5720
aVmeant
p5721
aVhandle
p5722
aVbonds
p5723
aVsmash
p5724
aVbasking
p5725
aVpacket
p5726
aVpacked
p5727
aVcloudless
p5728
aVends
p5729
aVastroturf
p5730
aVbuffalos
p5731
aVbutts
p5732
aVstreams
p5733
aVcinder
p5734
aVsnowfall
p5735
aVlampposts
p5736
aVoakland
p5737
aVrhode
p5738
aVchalkboard
p5739
aVutilizing
p5740
aVmannequin
p5741
aVtoasting
p5742
aVrunway
p5743
aVbathtub
p5744
aVsite
p5745
aVhardware
p5746
aVvw
p5747
aVsits
p5748
aVconcealed
p5749
aVdrink
p5750
aVcoffe
p5751
aVshacks
p5752
aV350
p5753
aVdrawing
p5754
aVflesh
p5755
aVrooms
p5756
aVroomy
p5757
aVclipped
p5758
aVgovernment
p5759
aVchecking
p5760
aVcedar
p5761
aVchairs
p5762
aVslathered
p5763
aVdaylight
p5764
aVbedding
p5765
aVblowing
p5766
aVselecting
p5767
aVpodium
p5768
aVscones
p5769
aVbulidings
p5770
aVcatamaran
p5771
aVlowered
p5772
aVleashed
p5773
aVcompute
p5774
aVcampus
p5775
aVleashes
p5776
aVirish
p5777
aVint
p5778
aVrubble
p5779
aVsibling
p5780
aVinn
p5781
aVink
p5782
aVing
p5783
aVina
p5784
aVfrisbee
p5785
aVvignette
p5786
aVveil
p5787
aVvein
p5788
aVhedges
p5789
aVconfinement
p5790
aVmansion
p5791
aVbike
p5792
aVbooties
p5793
aVregal
p5794
aVtagging
p5795
aVurinating
p5796
aVtriumph
p5797
aVchew
p5798
aVbubbling
p5799
aVhorn
p5800
aVchef
p5801
aVhors
p5802
aVplacemats
p5803
aVzoomed
p5804
aVfestive
p5805
aVdaughter
p5806
aVitems
p5807
aVskirts
p5808
aVbrowsing
p5809
aVcalculators
p5810
aVinfield
p5811
aVhighly
p5812
aVtotal
p5813
aValligator
p5814
aVnegative
p5815
aVretriever
p5816
aVaward
p5817
aVnozzle
p5818
aVmotocycle
p5819
aVveggies
p5820
aVacrobatic
p5821
aVfondant
p5822
aVbeach
p5823
aVoffshore
p5824
aVpizza
p5825
aVafter
p5826
aVdhl
p5827
aVencompassing
p5828
aVsouth
p5829
aVsalon
p5830
aVjapan
p5831
aVnets
p5832
aVhighlights
p5833
aVavocado
p5834
aVsavory
p5835
aVvents
p5836
aVcarton
p5837
aVband
p5838
aVbank
p5839
aVcrock
p5840
aVspigot
p5841
aVascends
p5842
aVautomobile
p5843
aVrocks
p5844
aVcornbread
p5845
aVlifted
p5846
aVkneels
p5847
aVlogs
p5848
aVlogo
p5849
aVmotorized
p5850
aVsprints
p5851
aVhooked
p5852
aVmedicine
p5853
aVstandard
p5854
aVcreated
p5855
aVcreates
p5856
aVdelicious
p5857
aVthick
p5858
aVfarming
p5859
aVhappily
p5860
aVtownhouses
p5861
aVchases
p5862
aVscenes
p5863
aVseated
p5864
aVseater
p5865
aVnavigate
p5866
aVstalls
p5867
aVnecktie
p5868
aVladen
p5869
aVlatter
p5870
aVhamper
p5871
aVluxury
p5872
aVboxcar
p5873
aVinvolving
p5874
aVexercises
p5875
aVwebcam
p5876
aVduckling
p5877
aVmitten
p5878
aVenjoyed
p5879
aVfisheye
p5880
aVforaging
p5881
aVlightening
p5882
aVcardinals
p5883
aVnasty
p5884
aVcovering
p5885
aVsheering
p5886
aVcattle
p5887
aVbunting
p5888
aVunable
p5889
aVwe
p5890
aVwi
p5891
aVconvertible
p5892
aVbras
p5893
aVgarnishing
p5894
aVheadlights
p5895
aVdroplets
p5896
aVapplied
p5897
aVtide
p5898
aVlaunches
p5899
aVair
p5900
aVaim
p5901
aVapplies
p5902
aVaid
p5903
aVproperty
p5904
aVlaunched
p5905
aVsavanna
p5906
aVplateful
p5907
aVperform
p5908
aVsheltered
p5909
aVbunny
p5910
aVarent
p5911
aVpeacocks
p5912
aVcontact
p5913
aVkale
p5914
aVathletic
p5915
aVphoto
p5916
aVfarther
p5917
aVsmoothies
p5918
aVboars
p5919
aVeying
p5920
aVbelongs
p5921
aVboard
p5922
aVboxed
p5923
aVboxes
p5924
aVboxer
p5925
aVlashes
p5926
aVeyeing
p5927
aVnuzzles
p5928
aVfilming
p5929
aVbeating
p5930
aVposh
p5931
aVpose
p5932
aVillustration
p5933
aVpost
p5934
aVcoral
p5935
aVaccepts
p5936
aVoctopus
p5937
aVfloat
p5938
aVbound
p5939
aVcapped
p5940
aVstrangely
p5941
aVway
p5942
aVwax
p5943
aVwas
p5944
aVwar
p5945
aVbecoming
p5946
aVconverse
p5947
aVmysterious
p5948
aVtrue
p5949
aVwinery
p5950
aVchestnut
p5951
aVcomputing
p5952
aVmuscular
p5953
aVmousepad
p5954
aVtopped
p5955
aVtopper
p5956
aVfrolic
p5957
aVbrothers
p5958
aVjuicer
p5959
aVwelcome
p5960
aVnotepad
p5961
aVump
p5962
aVcollared
p5963
aVcertainly
p5964
aVtusk
p5965
aVsouthwest
p5966
aVdivision
p5967
aVbaggie
p5968
aVgnarly
p5969
aVpresented
p5970
aVwoven
p5971
aVloves
p5972
aVperusing
p5973
aVenticing
p5974
aVappear
p5975
aVwildebeest
p5976
aVuniform
p5977
aVsequential
p5978
aVmuslim
p5979
aVcoloring
p5980
aVroaring
p5981
aVincoming
p5982
aVflames
p5983
aVusually
p5984
aV747
p5985
aVripening
p5986
aVfuton
p5987
aVcay
p5988
aVgraphic
p5989
aVcar
p5990
aVcap
p5991
aVcat
p5992
aVcan
p5993
aVcam
p5994
aVcal
p5995
aVcab
p5996
aVheart
p5997
aVheard
p5998
aVphrase
p5999
aVclothing
p6000
aVwetsuits
p6001
aVfreezer
p6002
aVflank
p6003
aVducati
p6004
aVdisplayed
p6005
aVplayful
p6006
aVholing
p6007
aVvicinity
p6008
aVyams
p6009
aVforms
p6010
aVtails
p6011
aV1950
p6012
aVintrigued
p6013
aVdirecting
p6014
aVhappen
p6015
aVamusement
p6016
aValbum
p6017
aVlooking
p6018
aVnavigating
p6019
aVcars
p6020
aVbodyboarding
p6021
aVcard
p6022
aVcare
p6023
aVselections
p6024
aVbritish
p6025
aVstevens
p6026
aVdirectly
p6027
aVmessage
p6028
aVchecked
p6029
aVchecker
p6030
aVnational
p6031
aVquad
p6032
aVtelevision
p6033
aVbrowses
p6034
aVslaw
p6035
aVslat
p6036
aVslap
p6037
aVslam
p6038
aVdistorted
p6039
aVslab
p6040
aVtelephones
p6041
aVprice
p6042
aVsauteed
p6043
aVgerman
p6044
aVfifty
p6045
aVmaine
p6046
aVfifth
p6047
aVstained
p6048
aVonly
p6049
aVtelevisions
p6050
aVcannon
p6051
aVtruly
p6052
aVcannot
p6053
aVcelebrate
p6054
aVheld
p6055
aVasleep
p6056
aVsport
p6057
aVcolgate
p6058
aVisraeli
p6059
aVbetween
p6060
aVmandarin
p6061
aVfanning
p6062
aVinstallation
p6063
aVmonk
p6064
aVoverview
p6065
aVskatboard
p6066
aVrubs
p6067
aVruby
p6068
aVvespa
p6069
aVthese
p6070
aVchinatown
p6071
aValcoholic
p6072
aVfiguring
p6073
aVfigurine
p6074
aVlite
p6075
aVclosest
p6076
aVbreeze
p6077
aVperipherals
p6078
aVmingling
p6079
aVmirrored
p6080
aVrules
p6081
aVruler
p6082
aVstools
p6083
aVoverlooks
p6084
aVlistening
p6085
aVconversing
p6086
aVgreeting
p6087
aVt
p6088
aVvegtables
p6089
aVsidwalk
p6090
aVstopped
p6091
aVwheat
p6092
aVpylons
p6093
aVvolkswagen
p6094
aVpapered
p6095
aVleftover
p6096
aVthrow
p6097
aVkickflip
p6098
aVwolf
p6099
aVbitty
p6100
aVearring
p6101
aVlog
p6102
aVremoving
p6103
aVlos
p6104
aVlow
p6105
aVlot
p6106
aVpositioned
p6107
aVwrestlers
p6108
aVshowerhead
p6109
aVmilking
p6110
aVsuites
p6111
aVdrift
p6112
aVpeas
p6113
aVpeal
p6114
aVpeak
p6115
aVsuited
p6116
aVuntidy
p6117
aVskeleton
p6118
aVscrewdriver
p6119
aVlouis
p6120
aVcookies
p6121
aVrectangular
p6122
aVunattached
p6123
aVloose
p6124
aVvet
p6125
aVvegetarian
p6126
aVwhine
p6127
aVfamily
p6128
aVaimed
p6129
aVtoys
p6130
aVthatched
p6131
aVtaker
p6132
aVtakes
p6133
aVcontains
p6134
aVtaken
p6135
aVmounted
p6136
aVfronted
p6137
aVcows
p6138
aVmagenta
p6139
aVspecies
p6140
aVhamburgers
p6141
aVostriches
p6142
aVmenus
p6143
aVsneak
p6144
aVstreetlamp
p6145
aVworkstation
p6146
aVracetrack
p6147
aVdread
p6148
aVcrafts
p6149
aVbanks
p6150
aVhelp
p6151
aVurine
p6152
aVsoon
p6153
aVskinning
p6154
aVwiener
p6155
aVmcdonalds
p6156
aVcarpeted
p6157
aVnestled
p6158
aVknocking
p6159
aVcupcake
p6160
aVpeeing
p6161
aVdominates
p6162
aVsurrounded
p6163
aVlabs
p6164
aVreason
p6165
aValgae
p6166
aVlaunch
p6167
aVblossom
p6168
aVdoughnuts
p6169
aVmaple
p6170
aVbanans
p6171
aVattic
p6172
aVwonderful
p6173
aVscheme
p6174
aVbanana
p6175
aVoverexposed
p6176
aVselling
p6177
aVsignaling
p6178
aVdiorama
p6179
aVhundred
p6180
aVtoliet
p6181
aVmickey
p6182
aVudders
p6183
aVwithered
p6184
aVkoala
p6185
aVofficers
p6186
aVcamouflage
p6187
aVbridle
p6188
aVmack
p6189
aVusual
p6190
aVhips
p6191
aVscooter
p6192
aVchiquita
p6193
aVspeckled
p6194
aVchimney
p6195
aVcatches
p6196
aVcatcher
p6197
aVclinic
p6198
aVconditions
p6199
aVinvisible
p6200
aVeggplant
p6201
aVboxers
p6202
aVprotector
p6203
aVjeff
p6204
aVlake
p6205
aVvessel
p6206
aVstamp
p6207
aVdamp
p6208
aVcollected
p6209
aVloom
p6210
aVsoiled
p6211
aVlook
p6212
aVrope
p6213
aVbikini
p6214
aVbiking
p6215
aVloop
p6216
aVreads
p6217
aVready
p6218
aVpomegranate
p6219
aVassortment
p6220
aVidling
p6221
aVolder
p6222
aVdocked
p6223
aVdryer
p6224
aVexercising
p6225
aVscrunched
p6226
aVremaining
p6227
aVlacking
p6228
aVgame
p6229
aVwings
p6230
aVsleigh
p6231
aVdelivered
p6232
aVdescribing
p6233
aVminimal
p6234
aVstem
p6235
aVstep
p6236
aVstew
p6237
aVfeild
p6238
aVshine
p6239
aVshiny
p6240
aVwithin
p6241
aVsmells
p6242
aVcollapsed
p6243
aVspecialty
p6244
aVproperly
p6245
aVdull
p6246
aVconvex
p6247
aVzooming
p6248
aVberries
p6249
aVmotorhome
p6250
aVunderbrush
p6251
aVcheerful
p6252
aVdesserts
p6253
aVairliners
p6254
aVsuits
p6255
aVshack
p6256
aVsuite
p6257
aVfishnet
p6258
aVtrough
p6259
aVcellular
p6260
aVcrowed
p6261
aVornately
p6262
aVpicker
p6263
aVbooty
p6264
aVpicket
p6265
aVboots
p6266
aVwaking
p6267
aVhose
p6268
aVbooth
p6269
aVpicked
p6270
aVsausage
p6271
aVpaintings
p6272
aVapplesauce
p6273
aVmeandering
p6274
aVcommercial
p6275
aVcanals
p6276
aVwig
p6277
aVwin
p6278
aVwii
p6279
aVwih
p6280
aVwit
p6281
aVremains
p6282
aVcrab
p6283
aVcheeks
p6284
aVstarted
p6285
aVcrosses
p6286
aVcrossed
p6287
aVskirt
p6288
aVegret
p6289
aVchevrolet
p6290
aVarrangement
p6291
aVcircular
p6292
aVbelongings
p6293
aVbakery
p6294
aVbakers
p6295
aVcompeting
p6296
aVouter
p6297
aVnokia
p6298
aVplacid
p6299
aVhands
p6300
aVdinnerware
p6301
aVhandy
p6302
aVcrossing
p6303
aVshaking
p6304
aVilluminate
p6305
aVmulticolored
p6306
aVexplores
p6307
aVcompletely
p6308
aVfarmland
p6309
aVstride
p6310
aVshred
p6311
aVperfectly
p6312
aVprone
p6313
aVhitching
p6314
aVcartoonish
p6315
aVportrait
p6316
aVemptying
p6317
aVcranes
p6318
aVsantas
p6319
aVcamper
p6320
aVmoths
p6321
aVexpired
p6322
aVsnapshot
p6323
aVholstein
p6324
aVcrate
p6325
aVpartners
p6326
aVbased
p6327
aVtire
p6328
aVbases
p6329
aVpartially
p6330
aVsprouting
p6331
aVgray
p6332
aVuniformed
p6333
aVsanwich
p6334
aVspotted
p6335
aVhumans
p6336
aVfreeze
p6337
aVdriveway
p6338
aVbuckets
p6339
aVkings
p6340
aVslowly
p6341
aVyak
p6342
aVkneeled
p6343
aVgatorade
p6344
aVleague
p6345
aVspaniel
p6346
aVtabletop
p6347
aVswinging
p6348
aVbucks
p6349
aVcapture
p6350
aVbuldings
p6351
aVstrange
p6352
aVunderground
p6353
aVeccentric
p6354
aVfierce
p6355
aVpoultry
p6356
aVwell
p6357
aVmixers
p6358
aVawning
p6359
aVattractively
p6360
aVclouded
p6361
aVclown
p6362
aVpage
p6363
aVhush
p6364
aVpeter
p6365
aVdrizzle
p6366
aVcompetitor
p6367
aVcoated
p6368
aVgoatee
p6369
aVjournal
p6370
aVsheriffs
p6371
aVbeige
p6372
aVcranberry
p6373
aVpuppies
p6374
aVtongue
p6375
aVpastries
p6376
aVequally
p6377
aVraquet
p6378
aVwashington
p6379
aVneutral
p6380
aVcourts
p6381
aVear
p6382
aVeat
p6383
aVstoried
p6384
aVbarbershop
p6385
aVtissues
p6386
aVutensils
p6387
aVstumps
p6388
aVacrylic
p6389
aVastounding
p6390
aVtailgate
p6391
aVfriends
p6392
aVinset
p6393
aVpowdery
p6394
aVasian
p6395
aVwhose
p6396
aVcemetary
p6397
aVvase
p6398
aVsmack
p6399
aVvast
p6400
aVbaking
p6401
aVgraces
p6402
aVwreck
p6403
aVhazy
p6404
aVhaze
p6405
aVfeeding
p6406
aV100
p6407
aVdry
p6408
aVrests
p6409
aVcredit
p6410
aVwatering
p6411
aVleaks
p6412
aVwars
p6413
aVlunge
p6414
aVwarm
p6415
aVadult
p6416
aVward
p6417
aVware
p6418
aVverdant
p6419
aVkraut
p6420
aVsetup
p6421
aVsomber
p6422
aVprogramming
p6423
aVaging
p6424
aVscooters
p6425
aVwaterfront
p6426
aVpresident
p6427
aVfedora
p6428
aVattempt
p6429
aVovertaken
p6430
aVowls
p6431
aVchihuahua
p6432
aVmeat
p6433
aVairfrance
p6434
aVroast
p6435
aVmeal
p6436
aVbone
p6437
aVmean
p6438
aVvote
p6439
aVstealing
p6440
aVnavy
p6441
aVvelvet
p6442
aVpatricks
p6443
aVreader
p6444
aVkiwis
p6445
aVbacklit
p6446
aVcookbooks
p6447
aVfiretrucks
p6448
aVfeatures
p6449
aVunlit
p6450
aVwalkers
p6451
aVfeatured
p6452
aVcomforter
p6453
aVditch
p6454
aVhollywood
p6455
aVwieners
p6456
aVbouncing
p6457
aVgym
p6458
aVstoic
p6459
aVgirraffe
p6460
aVboarding
p6461
aVdistance
p6462
aVpreparation
p6463
aVturrets
p6464
aVmini
p6465
aVsees
p6466
aVmodern
p6467
aVmind
p6468
aVmine
p6469
aVyachts
p6470
aVseed
p6471
aVseen
p6472
aVseem
p6473
aVdavidson
p6474
aVmashed
p6475
aVregular
p6476
aVdon
p6477
aVdoo
p6478
aValarm
p6479
aVm
p6480
aVdog
p6481
aVdot
p6482
aVsown
p6483
aVphotographic
p6484
aVexplain
p6485
aVsugar
p6486
aVstabbing
p6487
aVfolks
p6488
aVmonica
p6489
aVtiles
p6490
aVcoast
p6491
aVtiled
p6492
aVdisco
p6493
aVdiscs
p6494
aVdisney
p6495
aVgrilled
p6496
aVdecides
p6497
aVfascinating
p6498
aVfluffy
p6499
aVdecided
p6500
aVsubject
p6501
aVmaneuvers
p6502
aVagainst
p6503
aVpeddling
p6504
aVheight
p6505
aVofferings
p6506
aVgushes
p6507
aVloaded
p6508
aVstares
p6509
aVerect
p6510
aVwebsite
p6511
aVcieling
p6512
aVdecrepit
p6513
aVmelted
p6514
aVbloomed
p6515
aVmouse
p6516
aVmake
p6517
aVpolaroid
p6518
aVbelly
p6519
aVfiltered
p6520
aVscarfs
p6521
aVkit
p6522
aVdelight
p6523
aVgarlic
p6524
aVopportunity
p6525
aVkid
p6526
aVbutter
p6527
aVbedspread
p6528
aVmaterials
p6529
aVhummingbirds
p6530
aVhuman
p6531
aVtattooed
p6532
aVimpending
p6533
aVforested
p6534
aVshoulder
p6535
aVperforming
p6536
aVmaneuvering
p6537
aVonlooking
p6538
aVparticular
p6539
aVribs
p6540
aVvalentines
p6541
aVcrucifix
p6542
aVwhats
p6543
aVcarving
p6544
aVinspected
p6545
aVdiaper
p6546
aVmouthed
p6547
aVlilies
p6548
aVbounds
p6549
aVclings
p6550
aVwarehouse
p6551
aVgarland
p6552
aVoutskirts
p6553
aVpotato
p6554
aVgorilla
p6555
aVteeth
p6556
aVcessna
p6557
aVmadison
p6558
aVmanager
p6559
aVshoot
p6560
aVsmartphone
p6561
aVtacos
p6562
aVforked
p6563
aVstting
p6564
aVkeepers
p6565
aVitem
p6566
aVskiiers
p6567
aVadds
p6568
aVgazebo
p6569
aVmussels
p6570
aVmakeup
p6571
aVtusked
p6572
aVcuckoo
p6573
aVbattling
p6574
aVshift
p6575
aVraccoon
p6576
aVbruised
p6577
aVadjustable
p6578
aVkayak
p6579
aVhotels
p6580
aVdude
p6581
aVsomersault
p6582
aVtandem
p6583
aVconfused
p6584
aVbattered
p6585
aVspanning
p6586
aVarbor
p6587
aVskateboarders
p6588
aVhappens
p6589
aVloaves
p6590
aVmap
p6591
aVmat
p6592
aVstrokes
p6593
aVfed
p6594
aVmac
p6595
aVmad
p6596
aVneck
p6597
aVtale
p6598
aVtall
p6599
aVtalk
p6600
aVshield
p6601
aVshake
p6602
aVlisting
p6603
aVkabobs
p6604
aVsafari
p6605
aVsettings
p6606
aVarrows
p6607
aVrock
p6608
aVlatin
p6609
aVsignage
p6610
aVcanada
p6611
aVemerges
p6612
aVjackson
p6613
aV3rd
p6614
aVdutch
p6615
aVpizzeria
p6616
aVsensor
p6617
aVsideways
p6618
aVheadphones
p6619
aVthing
p6620
aVthink
p6621
aVcheese
p6622
aVcrib
p6623
aVsuspended
p6624
aVcheesy
p6625
aVlittle
p6626
aVmurky
p6627
aVparticipates
p6628
aVanyone
p6629
aVmermaid
p6630
aVeyes
p6631
aVbroadcast
p6632
aVeyed
p6633
aVbutt
p6634
aVceramics
p6635
aV11
p6636
aV10
p6637
aV13
p6638
aV12
p6639
aV15
p6640
aV14
p6641
aV17
p6642
aV16
p6643
aV18
p6644
aVgathering
p6645
aVmonochrome
p6646
aVspeakers
p6647
aVhooded
p6648
aVefficient
p6649
aVpotential
p6650
aVswitching
p6651
aVstraightening
p6652
aVcheesecake
p6653
aVbowels
p6654
aVstockings
p6655
aVshop
p6656
aVshot
p6657
aVshow
p6658
aVcorned
p6659
aVshoe
p6660
aVcorner
p6661
aVteacup
p6662
aVdice
p6663
aVplume
p6664
aVdick
p6665
aVplums
p6666
aVplump
p6667
aVnearly
p6668
aVfrolicking
p6669
aVjumper
p6670
aVteething
p6671
aVcamping
p6672
aVornament
p6673
aV787
p6674
aVtuck
p6675
aVfeeders
p6676
aVworkshop
p6677
aVshakers
p6678
aVpressing
p6679
aVathletes
p6680
aVcabana
p6681
aVspeech
p6682
aVtriumphantly
p6683
aVplaster
p6684
aVoin
p6685
aVoil
p6686
aVcommode
p6687
aVclimbing
p6688
aVlargely
p6689
aVbumping
p6690
aVmoney
p6691
aVshingled
p6692
aVpile
p6693
aVcarring
p6694
aVpill
p6695
aVgrip
p6696
aVgrid
p6697
aVgril
p6698
aVgrin
p6699
aVserves
p6700
aVserver
p6701
aVfacing
p6702
aVeither
p6703
aVserved
p6704
aVsneaker
p6705
aVascend
p6706
aVchuck
p6707
aVerase
p6708
aVpasture
p6709
aVascent
p6710
aVmatching
p6711
aVchoir
p6712
aVcolonial
p6713
aVlinoleum
p6714
aVcrafting
p6715
aVfringe
p6716
aVmixer
p6717
aVmixes
p6718
aVmixed
p6719
aVstrip
p6720
aVshells
p6721
aVstrikes
p6722
aVsophisticated
p6723
aVdownstairs
p6724
aVromantic
p6725
aVblackbird
p6726
aVdeer
p6727
aVdeep
p6728
aVgeneral
p6729
aVfile
p6730
aVfilm
p6731
aVfill
p6732
aVpersonnel
p6733
aVfloored
p6734
aVdecorates
p6735
aVimportant
p6736
aVdecorated
p6737
aVobserve
p6738
aVresembles
p6739
aVhusky
p6740
aVdollar
p6741
aVworms
p6742
aVsunk
p6743
aVfixtures
p6744
aVshredding
p6745
aVhideous
p6746
aVturnips
p6747
aVreturning
p6748
aVintricately
p6749
aVportable
p6750
aVgrasshopper
p6751
aVgrabs
p6752
aVappreciating
p6753
aVfixings
p6754
aVpublic
p6755
aVbowtie
p6756
aVcompilation
p6757
aVcomponent
p6758
aVbible
p6759
aVwhimsical
p6760
aVemptied
p6761
aVhunching
p6762
aVeye
p6763
aVculinary
p6764
aVwiped
p6765
aVtexting
p6766
aVtwo
p6767
aVcomparing
p6768
aVtwp
p6769
aVsplash
p6770
aVamenities
p6771
aVraft
p6772
aVwipes
p6773
aVpawing
p6774
aVlemons
p6775
aVcluttered
p6776
aVescorted
p6777
aVabandon
p6778
aVsphere
p6779
aVawkward
p6780
aVpreening
p6781
aVquesadilla
p6782
aVensemble
p6783
aVgravelly
p6784
aVchute
p6785
aVcrowded
p6786
aVdeserted
p6787
aVplaying
p6788
aVmuzzled
p6789
aVwinged
p6790
aVradar
p6791
aV24
p6792
aV25
p6793
aV20
p6794
aV22
p6795
aV29
p6796
aVenergy
p6797
aVhard
p6798
aVfist
p6799
aVtrooper
p6800
aVgranola
p6801
aVbrewers
p6802
aVunidentifiable
p6803
aVcrouched
p6804
aVcrouches
p6805
aVunbrellas
p6806
aVmembers
p6807
aVcomputers
p6808
aVrainforest
p6809
aVcopper
p6810
aVdont
p6811
aVdone
p6812
aVleast
p6813
aVleash
p6814
aVpara
p6815
aVdrapes
p6816
aVpark
p6817
aVdraped
p6818
aVdentist
p6819
aVpart
p6820
aVdoctors
p6821
aVbelieve
p6822
aVrecording
p6823
aVsupposed
p6824
aVidles
p6825
aVorders
p6826
aVmajority
p6827
aVzucchini
p6828
aVbrushes
p6829
aVsalmon
p6830
aVmost
p6831
aVmoss
p6832
aVextremely
p6833
aVsparrow
p6834
aVcrocheted
p6835
aVcontorted
p6836
aVunhappy
p6837
aV8
p6838
aVmein
p6839
aVsilk
p6840
aVsill
p6841
aVmerchandise
p6842
aVsilo
p6843
aVremove
p6844
aVcommon
p6845
aVarchways
p6846
aVsprayer
p6847
aVscruffy
p6848
aVlion
p6849
aVrepairs
p6850
aVburner
p6851
aVfans
p6852
aVburned
p6853
aVchampagne
p6854
aVbarrack
p6855
aVpepsi
p6856
aVsheeps
p6857
aVfolding
p6858
aVreverse
p6859
aVarchway
p6860
aVkitchens
p6861
aVsimple
p6862
aVdances
p6863
aVdancer
p6864
aVsimply
p6865
aVcaked
p6866
aVconsuming
p6867
aVdropping
p6868
aVslips
p6869
aVvans
p6870
aVgay
p6871
aVgas
p6872
aVgap
p6873
aVvane
p6874
aVgag
p6875
aVwedding
p6876
aVreplaced
p6877
aVawaits
p6878
aVfacade
p6879
aVbutcher
p6880
aVray
p6881
aVpurpose
p6882
aVmotionless
p6883
aVswiss
p6884
aVpaneling
p6885
aVcircling
p6886
aVletting
p6887
aVunloading
p6888
aVsalutes
p6889
aVinsect
p6890
aVsemi
p6891
aVdisks
p6892
aVbamboo
p6893
aVgardening
p6894
aVhumorous
p6895
aVjewelry
p6896
aVconnecting
p6897
aVcameraman
p6898
aVpatient
p6899
aVtaxing
p6900
aVgoods
p6901
aVoatmeal
p6902
aVframed
p6903
aVlesson
p6904
aVhortons
p6905
aVopponent
p6906
aVboys
p6907
aVjumbo
p6908
aVgeese
p6909
aVsingle
p6910
aVtiling
p6911
aVpails
p6912
aVbrushing
p6913
aVluxurious
p6914
aVprepares
p6915
aVdepicting
p6916
aVcurio
p6917
aVchariot
p6918
aVmotorboats
p6919
aVappointed
p6920
aVhelps
p6921
aVlabels
p6922
aVhuddled
p6923
aVrecreation
p6924
aVicicles
p6925
aVearth
p6926
aVpipes
p6927
aVpaddle
p6928
aVclipboard
p6929
aVexercise
p6930
aV3d
p6931
aVexchange
p6932
aVjointly
p6933
aVobjects
p6934
aV31
p6935
aV30
p6936
aV35
p6937
aVblizzard
p6938
aVinclosure
p6939
aVgateway
p6940
aVinthe
p6941
aVtrail
p6942
aViin
p6943
aVswooping
p6944
aVf
p6945
aVreserved
p6946
aVsnacks
p6947
aV$350
p6948
aVlamb
p6949
aVcurving
p6950
aVboxing
p6951
aVgrimaces
p6952
aVlamp
p6953
aVforest
p6954
aVfurnace
p6955
aVflanking
p6956
aVbluff
p6957
aVseashells
p6958
aVterrier
p6959
aVpoached
p6960
aVbins
p6961
aVinstitutional
p6962
aVagricultural
p6963
aVbutternut
p6964
aVmarshmallow
p6965
aVspell
p6966
aVcourtroom
p6967
aVblazing
p6968
aVsafeway
p6969
aVtubing
p6970
aVsalesman
p6971
aVmatt
p6972
aVmats
p6973
aVmate
p6974
aVmessenger
p6975
aVduffle
p6976
aVinteraction
p6977
aVruins
p6978
aVcabin
p6979
aVcompleted
p6980
aVdreary
p6981
aVblazers
p6982
aVcompletes
p6983
aVhumped
p6984
aVvisited
p6985
aVapparently
p6986
aVventuring
p6987
aVmic
p6988
aVmid
p6989
aVparks
p6990
aVparka
p6991
aVmit
p6992
aVsignifying
p6993
aVsedan
p6994
aVstranded
p6995
aVskinny
p6996
aVmice
p6997
aVstaff
p6998
aVcontrols
p6999
aVbeachgoers
p7000
aVkilts
p7001
aVcycles
p7002
aVconstructing
p7003
aVshallows
p7004
aVgraffitti
p7005
aVpattern
p7006
aVdeliver
p7007
aVtoting
p7008
aVtaking
p7009
aVtater
p7010
aVdryers
p7011
aVaa
p7012
aVbasins
p7013
aVcarves
p7014
aVgong
p7015
aVgaze
p7016
aVcurtain
p7017
aVfinishes
p7018
aVstationed
p7019
aVpreforming
p7020
aVfinished
p7021
aVsausages
p7022
aVbull
p7023
aVbulb
p7024
aVwaterhole
p7025
aVvolunteer
p7026
aVmulti
p7027
aVartfully
p7028
aVar
p7029
aVcarved
p7030
aVav
p7031
aVupclose
p7032
aVbinoculars
p7033
aVspitting
p7034
aVnumbered
p7035
aVkiteboarding
p7036
aVmuscle
p7037
aVads
p7038
aVadd
p7039
aVadn
p7040
aVmatch
p7041
aVmotorola
p7042
aVitalian
p7043
aVaccessible
p7044
aVpropel
p7045
aVproper
p7046
aVbet
p7047
aVmasked
p7048
aVbustling
p7049
aVthinly
p7050
aValthough
p7051
aVabout
p7052
aVactual
p7053
aVtailed
p7054
aVvegetated
p7055
aVfunctional
p7056
aVunderpass
p7057
aVstainless
p7058
aVvegetables
p7059
aVbiggest
p7060
aVchatting
p7061
aVpreparations
p7062
aVskating
p7063
aVdual
p7064
aVtopless
p7065
aVproceeds
p7066
aVmessily
p7067
aV42
p7068
aV40
p7069
aV41
p7070
aVspecial
p7071
aVlittered
p7072
aVoriginal
p7073
aVlimited
p7074
aVhitch
p7075
aVpoorly
p7076
aVmuzzle
p7077
aVsupported
p7078
aVunder
p7079
aVjack
p7080
aVmonkeys
p7081
aVmotorcyclist
p7082
aVformica
p7083
aVbicycle
p7084
aVfrosted
p7085
aVfabulous
p7086
aVtweezers
p7087
aVsolemn
p7088
aVpontoon
p7089
aVstray
p7090
aVstraw
p7091
aVstrap
p7092
aVswings
p7093
aVhospital
p7094
aVbillowing
p7095
aVhutch
p7096
aVwhizzes
p7097
aVjetliner
p7098
aVeyeballs
p7099
aVbadly
p7100
aVdelicacy
p7101
aVsnarling
p7102
aVharley
p7103
aVultimate
p7104
aVvapor
p7105
aVoysters
p7106
aVunderside
p7107
aVlondon
p7108
aVglances
p7109
aVtourist
p7110
aVmanicure
p7111
aVplats
p7112
aVshadows
p7113
aVpotatoes
p7114
aVshadowy
p7115
aVeach
p7116
aVmoose
p7117
aVwaffle
p7118
aVmotel
p7119
aVswirling
p7120
aVmotes
p7121
aVsplashed
p7122
aVsplashes
p7123
aVsuvs
p7124
aVgrasses
p7125
aVdiffernt
p7126
aVonto
p7127
aVgrassed
p7128
aVbandages
p7129
aVtoy
p7130
aVtop
p7131
aVtow
p7132
aVtot
p7133
aVton
p7134
aVtom
p7135
aVtoa
p7136
aVtog
p7137
aVtoe
p7138
aVurban
p7139
aVpondering
p7140
aVankle
p7141
aVwardrobe
p7142
aVnudging
p7143
aVroles
p7144
aVrolex
p7145
aVflame
p7146
aV10th
p7147
aVsnow
p7148
aVthough
p7149
aVplenty
p7150
aVjalapenos
p7151
aVpineapple
p7152
aVsanctuary
p7153
aVgarbanzo
p7154
aVradio
p7155
aVpaddleboarding
p7156
aVchewed
p7157
aVlodge
p7158
aVwatch
p7159
aVfluid
p7160
aVamazon
p7161
aVautomatic
p7162
aVnoodles
p7163
aVjerseys
p7164
aVhomeplate
p7165
aVbellowing
p7166
aVapproach
p7167
aVsoutheast
p7168
aVwear
p7169
aVchandeliers
p7170
aVgames
p7171
aVgamer
p7172
aVmajestic
p7173
aVtrust
p7174
aVquickly
p7175
aVsubmarine
p7176
aVglides
p7177
aVwindup
p7178
aVkentucky
p7179
aVstopping
p7180
aVprocedure
p7181
aVpyramid
p7182
aVexterior
p7183
aVinteracts
p7184
aVboater
p7185
aVsatellite
p7186
aVsuburb
p7187
aVmother
p7188
aVthumbs
p7189
aVelk
p7190
aVteenaged
p7191
aVcollars
p7192
aVelf
p7193
aVteenager
p7194
aVtrashed
p7195
aVmounds
p7196
aVbanannas
p7197
aVcultural
p7198
aVjudge
p7199
aVappearing
p7200
aV55
p7201
aV54
p7202
aV51
p7203
aV50
p7204
aVhunk
p7205
aVflaps
p7206
aVhung
p7207
aVpetting
p7208
aVsuccessfully
p7209
aVproudly
p7210
aVmalaysia
p7211
aVdoorstep
p7212
aVcompanions
p7213
aVeverything
p7214
aVsewing
p7215
aVlamps
p7216
aVdalmatian
p7217
aVplug
p7218
aVcowboy
p7219
aVplus
p7220
aVcivil
p7221
aVcubicle
p7222
aVvirgin
p7223
aVwildflower
p7224
aVcrews
p7225
aVgin
p7226
aVsteers
p7227
aVattempted
p7228
aVwireless
p7229
aVilluminating
p7230
aVcylinders
p7231
aVruined
p7232
aVdecorate
p7233
aVshines
p7234
aVmiscellaneous
p7235
aVbrief
p7236
aVradishes
p7237
aVnavel
p7238
aVyacht
p7239
aVcoach
p7240
aVfocus
p7241
aVleads
p7242
aVenvironment
p7243
aVcharge
p7244
aVpromoting
p7245
aVcoop
p7246
aVspools
p7247
aVfootboard
p7248
aVnesting
p7249
aVplantain
p7250
aVcook
p7251
aVcool
p7252
aVcouches
p7253
aVklm
p7254
aVdries
p7255
aVdrier
p7256
aVdried
p7257
aVhealthy
p7258
aVstomachs
p7259
aVsports
p7260
aVhandles
p7261
aVhandler
p7262
aViphone
p7263
aVflapping
p7264
aVautumn
p7265
aVsheds
p7266
aVoverpass
p7267
aVcounting
p7268
aV1
p7269
aVcardinal
p7270
aVetched
p7271
aVcrashes
p7272
aVcrashed
p7273
aVliquid
p7274
aVhilltop
p7275
aVfurnished
p7276
aVfoldable
p7277
aVoffers
p7278
aVlonely
p7279
aVunderneath
p7280
aVindividually
p7281
aVtrunks
p7282
aVpopulated
p7283
aVtulips
p7284
aVprocessed
p7285
aVoasis
p7286
aVflyer
p7287
aVskillfully
p7288
aVgrab
p7289
aVcalories
p7290
aVbutterflies
p7291
aVplace
p7292
aVswing
p7293
aVarray
p7294
aVengineer
p7295
aVgiven
p7296
aVdistrict
p7297
aVreturns
p7298
aVgives
p7299
aVreleases
p7300
aVcops
p7301
aVcopy
p7302
aVoats
p7303
aVstraddles
p7304
aVrent
p7305
aVsells
p7306
aVmarathon
p7307
aVphillips
p7308
aVhooves
p7309
aVcleared
p7310
aVhungry
p7311
aVsculpted
p7312
aVconvoy
p7313
aVnectarine
p7314
aVicebox
p7315
aVbareback
p7316
aVhedge
p7317
aVreveal
p7318
aVdiscussing
p7319
aVmicrophones
p7320
aVturntable
p7321
aVcollege
p7322
aVfarmers
p7323
aVoutside
p7324
aVpassangers
p7325
aVdensely
p7326
aVdiners
p7327
aVwanders
p7328
aVberry
p7329
aVduty
p7330
aVkey
p7331
aVbricks
p7332
aVhunched
p7333
aVpop
p7334
aVjammed
p7335
aV66
p7336
aVpod
p7337
aVhunches
p7338
aVteammate
p7339
aVhelicopter
p7340
aVravioli
p7341
aVengine
p7342
aVtiger
p7343
aVeatery
p7344
aVcareful
p7345
aVwineglasses
p7346
aVmount
p7347
aVslippery
p7348
aVmound
p7349
aVslippers
p7350
aVcandies
p7351
aVcouples
p7352
aVprojector
p7353
aVcheck
p7354
aVpersona
p7355
aVnest
p7356
aVpersons
p7357
aVcartoon
p7358
aVsand
p7359
aVpennsylvania
p7360
aVranch
p7361
aVsatin
p7362
aVhalfway
p7363
aVrose
p7364
aVseems
p7365
aVtin
p7366
aVconfined
p7367
aVfurniture
p7368
aVnissan
p7369
aVbracelet
p7370
aVkleenex
p7371
aVjeep
p7372
aVshrimp
p7373
aVinforming
p7374
aVstand
p7375
aVhuddling
p7376
aVladies
p7377
aVgarb
p7378
aVsnowmen
p7379
aVbuds
p7380
aVkittens
p7381
aVamongst
p7382
aVslushy
p7383
aVavacado
p7384
aVprotrudes
p7385
aVhasnt
p7386
aVwinking
p7387
aVmotorcylce
p7388
aVbrass
p7389
aVvariegated
p7390
aVapparel
p7391
aVtransports
p7392
aVswirls
p7393
aVchinese
p7394
aVswirly
p7395
aVale
p7396
aVswerving
p7397
aVladders
p7398
aVdisc
p7399
aVdish
p7400
aVdisk
p7401
aVremarkable
p7402
aVactivities
p7403
aVliter
p7404
aVawful
p7405
aVreins
p7406
aVcheeses
p7407
aVwhat
p7408
aVcrust
p7409
aVcrush
p7410
aVracing
p7411
aVmultitude
p7412
aVtags
p7413
aVelongated
p7414
aVpaired
p7415
aVbirdseed
p7416
aVproceed
p7417
aVmarkets
p7418
aVminor
p7419
aVknows
p7420
aVknown
p7421
aVfreightliner
p7422
aVsleeveless
p7423
aVwrestler
p7424
aVwrestles
p7425
aVpony
p7426
aVpond
p7427
aVpong
p7428
aVadvantage
p7429
aVexplains
p7430
aVacknowledging
p7431
aVcatalog
p7432
aVsoftball
p7433
aVshady
p7434
aVartful
p7435
aVshade
p7436
aVdeveloped
p7437
aVstyle
p7438
aVresort
p7439
aVblenders
p7440
aVstephen
p7441
aVsucking
p7442
aVcupola
p7443
aVhairdryer
p7444
aVsnowboarders
p7445
aVinflated
p7446
aVkrispy
p7447
aVremodeling
p7448
aVtractors
p7449
aVcookie
p7450
aVbushes
p7451
aVbookbag
p7452
aVbushel
p7453
aVdine
p7454
aVfeel
p7455
aVfeet
p7456
aVsailor
p7457
aVsays
p7458
aVsoaps
p7459
aVgourmet
p7460
aVhangs
p7461
aVphotographing
p7462
aVuncommonly
p7463
aVhotel
p7464
aVpassersby
p7465
aVaims
p7466
aVoutdoors
p7467
aVsuspicious
p7468
aVnights
p7469
aVfreshener
p7470
aVfinding
p7471
aVnothing
p7472
aVstands
p7473
aVsaloon
p7474
aVcds
p7475
aVtarmac
p7476
aVshepherd
p7477
aVcompiled
p7478
aVrailyard
p7479
aVinvestigate
p7480
aVheaping
p7481
aVwheeling
p7482
aVhairy
p7483
aVsuckling
p7484
aVnumerous
p7485
aVcreating
p7486
aVoutfit
p7487
aVroman
p7488
aVrollers
p7489
aVcrispy
p7490
aVgoats
p7491
aVpolitical
p7492
aVrefrigeration
p7493
aVskyward
p7494
aVsiting
p7495
aVreferee
p7496
aVfirefighters
p7497
aVunidentified
p7498
aVrocking
p7499
aVplants
p7500
aVbarricade
p7501
aVnightstand
p7502
aVwaterside
p7503
aVkimono
p7504
aVpeoples
p7505
aVliterature
p7506
aVflows
p7507
aVholidays
p7508
aVflown
p7509
aVcongregated
p7510
aVcheek
p7511
aVchickens
p7512
aVcheer
p7513
aVchees
p7514
aVstating
p7515
aVcarport
p7516
aVtables
p7517
aVtablet
p7518
aVworkers
p7519
aVtabled
p7520
aVcustomers
p7521
aVvendor
p7522
aVspires
p7523
aVentangled
p7524
aVshaped
p7525
aVshapes
p7526
aVwonderland
p7527
aVporridge
p7528
aValoft
p7529
aVbars
p7530
aVwomens
p7531
aVplethora
p7532
aVmommy
p7533
aVmomma
p7534
aVbaggy
p7535
aVsections
p7536
aVfiles
p7537
aVraisins
p7538
aVcloth
p7539
aVdelta
p7540
aVshutters
p7541
aVpenguin
p7542
aVconsist
p7543
aVstrands
p7544
aVgraham
p7545
aVottomans
p7546
aVrainy
p7547
aVrains
p7548
aVparlor
p7549
aVmock
p7550
aVmustard
p7551
aVgenerated
p7552
aVvice
p7553
aVbroad
p7554
aVonce
p7555
aVwrestle
p7556
aVhooks
p7557
aVdramatically
p7558
aVbreathing
p7559
aVspool
p7560
aVspoon
p7561
aVposture
p7562
aVsmaller
p7563
aVtraveling
p7564
aVcapital
p7565
aVindicator
p7566
aVbarb
p7567
aVheadless
p7568
aVripeness
p7569
aVconsumption
p7570
aVcrusted
p7571
aVduster
p7572
aVstroke
p7573
aVdusted
p7574
aVnapkins
p7575
aVperformed
p7576
aVpatrol
p7577
aVparasailers
p7578
aVsip
p7579
aVsit
p7580
aVsix
p7581
aVhaight
p7582
aVinstead
p7583
aVsin
p7584
aVsil
p7585
aVblustery
p7586
aVlight
p7587
aVrusted
p7588
aVbadges
p7589
aVhorizontally
p7590
aVgrafitti
p7591
aVclusters
p7592
aVpecans
p7593
aVblackberries
p7594
aVcitrus
p7595
aVmaterial
p7596
aVflew
p7597
aVfeast
p7598
aVrockets
p7599
aVbills
p7600
aVlilac
p7601
aVrelated
p7602
aV80
p7603
aVshearing
p7604
aVfrontier
p7605
aVsupports
p7606
aVipod
p7607
aVmaintains
p7608
aVpendant
p7609
aVrepairing
p7610
aVweaves
p7611
aVbirthday
p7612
aVsnowcapped
p7613
aVrenovation
p7614
aVtheir
p7615
aVshell
p7616
aVashbury
p7617
aVshelf
p7618
aVreflecting
p7619
aVjuly
p7620
aVfaux
p7621
aVcatholic
p7622
aVangle
p7623
aVwhich
p7624
aVsnacking
p7625
aVclass
p7626
aVstatute
p7627
aVevergreens
p7628
aVneighboring
p7629
aVkegs
p7630
aVbulging
p7631
aVstove
p7632
aVcombs
p7633
aVsurroundings
p7634
aVcombo
p7635
aVpiano
p7636
aVwatching
p7637
aVmainly
p7638
aVbronco
p7639
aVchips
p7640
aVroadwork
p7641
aVsaucers
p7642
aVstories
p7643
aVbarbeque
p7644
aVswift
p7645
aVwall
p7646
aVwalk
p7647
aVtrays
p7648
aVmike
p7649
aVunpeeled
p7650
aVpresent
p7651
aVabandoned
p7652
aVbedspreads
p7653
aVpews
p7654
aVbystanders
p7655
aVgets
p7656
aVtomatoes
p7657
aVcellphones
p7658
aVcoached
p7659
aVcoaches
p7660
aVstudent
p7661
aVpedal
p7662
aVwhale
p7663
aVlobby
p7664
aVgutter
p7665
aVplowed
p7666
aVspectator
p7667
aVbatteries
p7668
aVtoilets
p7669
aVconsole
p7670
aVdinning
p7671
aVconcourse
p7672
aVstowed
p7673
aVtalkie
p7674
aVmiami
p7675
aVkawasaki
p7676
aVtumble
p7677
aVscared
p7678
aVplatforms
p7679
aVtwirling
p7680
aVdetergent
p7681
aVcampfire
p7682
aVdangling
p7683
aVclutter
p7684
aVfluorescent
p7685
aVlinger
p7686
aVcocked
p7687
aVtravelers
p7688
aVcocker
p7689
aVvan
p7690
aVartifacts
p7691
aVdynamite
p7692
aVvat
p7693
aVgranny
p7694
aVsqueeze
p7695
aVmade
p7696
aVwhether
p7697
aVbelow
p7698
aVstirring
p7699
aVplaques
p7700
aVwaterskiing
p7701
aVfloret
p7702
aVrailing
p7703
aVtreading
p7704
aVsnowing
p7705
aVshaving
p7706
aVnigh
p7707
aVtired
p7708
aVbacon
p7709
aVtires
p7710
aVelegant
p7711
aVsecond
p7712
aVblouse
p7713
aVboogie
p7714
aVfingers
p7715
aVhero
p7716
aVreporter
p7717
aVherb
p7718
aVhere
p7719
aVherd
p7720
aVhers
p7721
aVtortoiseshell
p7722
aVbrought
p7723
aVunit
p7724
aVducky
p7725
aVswining
p7726
aVoccupying
p7727
aVpassport
p7728
aVuntil
p7729
aVbrings
p7730
aVglass
p7731
aVhole
p7732
aVhold
p7733
aVsittting
p7734
aVsomebodys
p7735
aVhog
p7736
aVhoe
p7737
aVdrying
p7738
aVhow
p7739
aVhot
p7740
aVbeauty
p7741
aVyouths
p7742
aVbackdrop
p7743
aVmurals
p7744
aVbackpack
p7745
aVheadboard
p7746
aVhaphazardly
p7747
aVspotless
p7748
aVsnakes
p7749
aVspider
p7750
aVcathedral
p7751
aVwhit
p7752
aVwhip
p7753
aVgrapes
p7754
aVate
p7755
aVshelves
p7756
aVatm
p7757
aVtakeout
p7758
aVcucumber
p7759
aVplayfully
p7760
aVveggie
p7761
aVspinning
p7762
aVbitten
p7763
aVsimilarly
p7764
aVchugging
p7765
aVranging
p7766
aVcushions
p7767
aVgothic
p7768
aVnations
p7769
aVboston
p7770
aVpaddles
p7771
aVpaddled
p7772
aVobject
p7773
aVmacbook
p7774
aVincomplete
p7775
aVtouches
p7776
aVbusy
p7777
aVbuss
p7778
aVbust
p7779
aVbush
p7780
aVtouched
p7781
aVlonghorn
p7782
aVcushion
p7783
aVgreens
p7784
aVtights
p7785
aVrelease
p7786
aVresult
p7787
aVhammer
p7788
aVshirted
p7789
aVstamps
p7790
aVrolled
p7791
aVtoilette
p7792
aVmedallion
p7793
aVwth
p7794
aVroller
p7795
aVaccident
p7796
aVpita
p7797
aV30th
p7798
aVunbuttoned
p7799
aVsheepdog
p7800
aV2nd
p7801
aVblending
p7802
aVana
p7803
aVlighthouse
p7804
aVwatercraft
p7805
aVroofed
p7806
aVpro
p7807
aVeastern
p7808
aVskiis
p7809
aVracquets
p7810
aVflooding
p7811
aVplayed
p7812
aVplayer
p7813
aVthings
p7814
aVtoaster
p7815
aVtoasted
p7816
aVtuna
p7817
aVburgers
p7818
aVrushing
p7819
aVcollectibles
p7820
aVenters
p7821
aVease
p7822
aVeasy
p7823
aVprison
p7824
aVeast
p7825
aVposed
p7826
aVposes
p7827
aVbushy
p7828
aVright
p7829
aVold
p7830
aVruffled
p7831
aVcreative
p7832
aVbowing
p7833
aVmanufacturing
p7834
aVemits
p7835
aVo
p7836
aVseaplane
p7837
aVslightly
p7838
aVflatbread
p7839
aVjuicing
p7840
aVlittering
p7841
aVoffer
p7842
aVforming
p7843
aVonlooker
p7844
aVbathrobe
p7845
aVfloor
p7846
aVflood
p7847
aVwarms
p7848
aVsmell
p7849
aVrolling
p7850
aVcongested
p7851
aVpackets
p7852
aVtime
p7853
aVpush
p7854
aVbanners
p7855
aVtrashcan
p7856
aValigned
p7857
aVfatigues
p7858
aVtricycle
p7859
aVkneading
p7860
aVunaware
p7861
aVbulldozer
p7862
aVcrescent
p7863
aVfalling
p7864
aVbadge
p7865
aVbanister
p7866
aVfuneral
p7867
aValone
p7868
aValong
p7869
aVroot
p7870
aVradish
p7871
aVtoppled
p7872
aVfilms
p7873
aVloving
p7874
aVpeope
p7875
aVpeopl
p7876
aVoregon
p7877
aVmarbled
p7878
aVlogos
p7879
aVgrassing
p7880
aVprinting
p7881
aVevidently
p7882
aVsilos
p7883
aVdivided
p7884
aVpoking
p7885
aVadvancing
p7886
aVdivider
p7887
aVlaundry
p7888
aVlatte
p7889
aVsuch
p7890
aVdove
p7891
aVvarieties
p7892
aVplacemat
p7893
aVdarkened
p7894
aVtruck
p7895
aVcourse
p7896
aVyawning
p7897
aVthumb
p7898
aVaccordion
p7899
aVoversize
p7900
aVketchup
p7901
aVmaintaining
p7902
aVturtle
p7903
aVfluted
p7904
aVflutes
p7905
aVnaked
p7906
aVblt
p7907
aVquite
p7908
aVspooning
p7909
aVbesides
p7910
aVmonogrammed
p7911
aVtraining
p7912
aVsilhouetted
p7913
aVpunk
p7914
aVchevy
p7915
aVsilhouettes
p7916
aVmassive
p7917
aVroutes
p7918
aVrouter
p7919
aVclause
p7920
aVpassageway
p7921
aVbluish
p7922
aVspanish
p7923
aVdraft
p7924
aVshoppers
p7925
aVstructures
p7926
aVwilliams
p7927
aVflatscreen
p7928
aVartifact
p7929
aVridiculous
p7930
aVsiding
p7931
aVglossy
p7932
aVtwinkies
p7933
aVsan
p7934
aVsac
p7935
aVsad
p7936
aVsay
p7937
aVrained
p7938
aVsas
p7939
aVsaw
p7940
aVsat
p7941
aVaside
p7942
aVnote
p7943
aVroadside
p7944
aVwanting
p7945
aVbutterfly
p7946
aVhanding
p7947
aVknee
p7948
aVpages
p7949
aVpeice
p7950
aVmontage
p7951
aVsale
p7952
aVcushioned
p7953
aVsalt
p7954
aVaccented
p7955
aVgrilling
p7956
aVslot
p7957
aVslow
p7958
aVslop
p7959
aVdinette
p7960
aVtears
p7961
aVgoing
p7962
aVblinds
p7963
aVwheelie
p7964
aVoutlet
p7965
aVartist
p7966
aVskyline
p7967
aVroger
p7968
aVsnowsuit
p7969
aVwhere
p7970
aVjumped
p7971
aVdormitory
p7972
aVbureau
p7973
aVsurfboards
p7974
aVdecks
p7975
aVjobs
p7976
aVdome
p7977
aVspare
p7978
aVloafs
p7979
aVresidence
p7980
aVconverses
p7981
aVboad
p7982
aVboar
p7983
aVaerial
p7984
aVboat
p7985
aVcomb
p7986
aVstretch
p7987
aVmounting
p7988
aVairliner
p7989
aVairlines
p7990
aVreflective
p7991
aVlanes
p7992
aVjuts
p7993
aVcanoes
p7994
aVdressy
p7995
aVcanoe
p7996
aVtwists
p7997
aVcanon
p7998
aVfame
p7999
aVpaneled
p8000
aVnuzzle
p8001
aVdriftwood
p8002
aValfredo
p8003
aVgrumpy
p8004
aVsummer
p8005
aVsprayed
p8006
aVtrimmings
p8007
aVmedals
p8008
aVinstrument
p8009
aVghostly
p8010
aVbandage
p8011
aVpartaking
p8012
aVdiscarded
p8013
aVstationary
p8014
aVauditorium
p8015
aVwristband
p8016
aVtote
p8017
aVnoon
p8018
aVnook
p8019
aVtots
p8020
aVexit
p8021
aVpower
p8022
aVstone
p8023
aVfavorite
p8024
aVslender
p8025
aVside
p8026
aVnetbook
p8027
aVneighbor
p8028
aVdoodling
p8029
aVstony
p8030
aVburning
p8031
aVmoped
p8032
aVwade
p8033
aVracquet
p8034
aVphiladelphia
p8035
aVmeals
p8036
aVcomplete
p8037
aVgliding
p8038
aVdispensing
p8039
aVage
p8040
aVdarker
p8041
aVexhausted
p8042
aVcertain
p8043
aVaccents
p8044
aVtshirt
p8045
aVwalks
p8046
aVcollie
p8047
aVgraduate
p8048
aVsomeones
p8049
aVmotorcyclists
p8050
aVdented
p8051
aVgifts
p8052
aVgroom
p8053
aVmotocross
p8054
aVcode
p8055
aVtours
p8056
aVhunting
p8057
aVsmile
p8058
aVunfurnished
p8059
aVstrand
p8060
aVlaying
p8061
aVadjust
p8062
aVcarriages
p8063
aVrevealing
p8064
aVleaping
p8065
aVsocial
p8066
aVvia
p8067
aVvie
p8068
aVselect
p8069
aVpoodle
p8070
aVrefueling
p8071
aVteen
p8072
aVsignpost
p8073
aVmall
p8074
aVmale
p8075
aVcampsite
p8076
aVdress
p8077
aVfreshly
p8078
aVplant
p8079
aVplans
p8080
aVplane
p8081
aVplank
p8082
aVleroy
p8083
aVpatio
p8084
aVith
p8085
aVbowl
p8086
aVtrade
p8087
aVbroadway
p8088
aVits
p8089
aVlicks
p8090
aVrapidly
p8091
aVally
p8092
aVbuys
p8093
aVsnowball
p8094
aVloosely
p8095
aVstnading
p8096
aVwarped
p8097
aVlantern
p8098
aVengland
p8099
aVblues
p8100
aVreally
p8101
aVhangers
p8102
aVdriver
p8103
aVcockpit
p8104
aVunmanned
p8105
aVclump
p8106
aVmajor
p8107
aVironing
p8108
aVfulled
p8109
aVstairs
p8110
aVkreme
p8111
aVpajamas
p8112
aVbrace
p8113
aVblackboard
p8114
aVswiftly
p8115
aVunused
p8116
aVbrooklyn
p8117
aVcolliding
p8118
aVoyster
p8119
aVartistic
p8120
aVdonkeys
p8121
aVkeychain
p8122
aVgiants
p8123
aVbeams
p8124
aVpaddling
p8125
aVtabby
p8126
aVweaved
p8127
aVriver
p8128
aVapproaching
p8129
aVmanger
p8130
aVnibble
p8131
aVorigami
p8132
aVknees
p8133
aV#
p8134
aS'#END#'
p8135
aVmovie
p8136
aVcurrently
p8137
aVcrossword
p8138
aVcaptured
p8139
aVkneel
p8140
aVprepped
p8141
aVeurope
p8142
aVbuoys
p8143
aVflatware
p8144
aVinterface
p8145
aVbarely
p8146
aVpda
p8147
aVpatty
p8148
aVload
p8149
aVloaf
p8150
aVpendulum
p8151
aVloan
p8152
aVexcept
p8153
aVscottish
p8154
aVdevil
p8155
aVconveyor
p8156
aVsleeved
p8157
aVhind
p8158
aVsleeves
p8159
aVmlb
p8160
aVhandling
p8161
aVknacks
p8162
aVkissing
p8163
aVrobin
p8164
aVpound
p8165
aVhoping
p8166
aVarching
p8167
aVbacking
p8168
aVcalculator
p8169
aVducks
p8170
aVtriple
p8171
aVbeautifully
p8172
aVchase
p8173
aVmint
p8174
aVshorter
p8175
aVsnail
p8176
aVcigar
p8177
aVviewing
p8178
aVstack
p8179
aVpicks
p8180
aVnacks
p8181
aVsandal
p8182
aVsignals
p8183
aVgrapefruit
p8184
aVcrying
p8185
aVsurprised
p8186
aVfalcon
p8187
aVprojects
p8188
aVflannel
p8189
aVimposed
p8190
aVstylish
p8191
aVtemple
p8192
aVnowhere
p8193
aVmemorabilia
p8194
aVrepair
p8195
aVgarbage
p8196
aVservers
p8197
aVappropriate
p8198
aVspending
p8199
aVsneaks
p8200
aVcustom
p8201
aVatop
p8202
aVassisting
p8203
aVconsumed
p8204
aVinsignia
p8205
aVlabrador
p8206
aVskimming
p8207
aVsunken
p8208
aVgirrafe
p8209
aVparakeet
p8210
aVscraps
p8211
aVtarp
p8212
aVtart
p8213
aVelements
p8214
aVscrub
p8215
aVenergetic
p8216
aVago
p8217
aVfurthest
p8218
aVfighter
p8219
aVannoyed
p8220
aVopposing
p8221
aVlongboard
p8222
aVpartial
p8223
aVillustrated
p8224
aVstops
p8225
aVdainty
p8226
aVchillin
p8227
aVcenters
p8228
aVconcerned
p8229
aVcontinues
p8230
aVmanipulated
p8231
aVenclosed
p8232
aVodd
p8233
aVapparatus
p8234
aVindian
p8235
aVchickpeas
p8236
aVslabs
p8237
aVthin
p8238
aVscenery
p8239
aVgathered
p8240
aVdelivering
p8241
aVbacksides
p8242
aVgreat
p8243
aVreceive
p8244
aVinvolved
p8245
aVpopcorn
p8246
aVinvolves
p8247
aVtools
p8248
aVzip
p8249
aVduplicate
p8250
aVcarrying
p8251
aVdicing
p8252
aVcharity
p8253
aVdepiction
p8254
aVballs
p8255
aVanimals
p8256
aVthis
p8257
aVathlete
p8258
aVoh
p8259
aVpour
p8260
aVreeds
p8261
aVpurposes
p8262
aVpieces
p8263
aVpieced
p8264
aVpurposed
p8265
aVwares
p8266
aVestablishment
p8267
aVcontraption
p8268
aVyellowish
p8269
aVhalter
p8270
aVtied
p8271
aVhitched
p8272
aVtier
p8273
aVties
p8274
aVracks
p8275
aVautograph
p8276
aVor
p8277
aVpyramids
p8278
aVvolunteers
p8279
aVmotorcycle
p8280
aVderelict
p8281
aVcage
p8282
aVtransparent
p8283
aVfrittata
p8284
aVaccompanied
p8285
aVbeneath
p8286
aVdoing
p8287
aVsingular
p8288
aVtroop
p8289
aVshut
p8290
aVawait
p8291
aVsteering
p8292
aVscary
p8293
aVpigs
p8294
aVpudding
p8295
aVears
p8296
aVscarf
p8297
aVtouring
p8298
aVautographed
p8299
aVdetailing
p8300
aVdecorations
p8301
aVtesting
p8302
aVaccompany
p8303
aVunoccupied
p8304
aVgrandpa
p8305
aVappealing
p8306
aVviewer
p8307
aVdeodorant
p8308
aVviewed
p8309
aVilluminated
p8310
aVbiplanes
p8311
aVdevice
p8312
aVvultures
p8313
aVatmosphere
p8314
aVbedroom
p8315
aVrough
p8316
aVwetsuit
p8317
aVpause
p8318
aVpets
p8319
aVfamiliar
p8320
aVlucky
p8321
aVautos
p8322
aVh
p8323
aVlazy
p8324
aVwire
p8325
aVscrolls
p8326
aVcourtyard
p8327
aVrams
p8328
aVetc
p8329
aVpuff
p8330
aVpowered
p8331
aVpoured
p8332
aVwindsurfs
p8333
aVwaste
p8334
aVgraphics
p8335
aVdigging
p8336
aVglaring
p8337
aVfielded
p8338
aVupon
p8339
aVikea
p8340
aVafghan
p8341
aVbroccoli
p8342
aVmosaic
p8343
aVovercast
p8344
aVless
p8345
aVhauled
p8346
aVpaul
p8347
aVlattice
p8348
aVcosmetics
p8349
aVcombing
p8350
aVhaul
p8351
aVsolider
p8352
aVfive
p8353
aVdesk
p8354
aVgarage
p8355
aVwhtie
p8356
aVjalapeno
p8357
aVdoes
p8358
aVsymbol
p8359
aVblurry
p8360
aVmidair
p8361
aVzips
p8362
aVresidences
p8363
aVhiding
p8364
aVfurred
p8365
aVconcession
p8366
aVsnuggling
p8367
aVroads
p8368
aVspots
p8369
aVoverlapping
p8370
aVgrate
p8371
aVchained
p8372
aVmonument
p8373
aVinformational
p8374
aVslowing
p8375
aVreplica
p8376
aVgoalkeeper
p8377
aVchance
p8378
aVdolphins
p8379
aVeof
p8380
aVvalve
p8381
aVsaver
p8382
aVwaring
p8383
aVcloseup
p8384
aVegrets
p8385
aVchapel
p8386
aVtickets
p8387
aVwhisk
p8388
aVpoppy
p8389
aV1940s
p8390
aVpaperback
p8391
aVphones
p8392
aVtasble
p8393
aVplanters
p8394
aVclocked
p8395
aVserrated
p8396
aVtoll
p8397
aVconsisting
p8398
aVsimultaneously
p8399
aVwrapping
p8400
aVbookcase
p8401
aVcubical
p8402
aVwalkie
p8403
aVriverboat
p8404
aVspooky
p8405
aVangrily
p8406
aVpierced
p8407
aVword
p8408
aVwork
p8409
aVworm
p8410
aVworn
p8411
aVblooming
p8412
aVcrackers
p8413
aVvolkswagon
p8414
aVairstrip
p8415
aVindia
p8416
aVwalsk
p8417
aVlad
p8418
aVlab
p8419
aVlay
p8420
aVlaw
p8421
aVlap
p8422
aVheaddress
p8423
aVlas
p8424
aVambulance
p8425
aVfan
p8426
aVorder
p8427
aVoffice
p8428
aVwiffle
p8429
aVmuffin
p8430
aVrecreational
p8431
aVshear
p8432
aVeventually
p8433
aVbreak
p8434
aVbread
p8435
aVbolted
p8436
aVoxygen
p8437
aVembankment
p8438
aVbells
p8439
aVrecognizable
p8440
aVnetwork
p8441
aVcameras
p8442
aVdiesel
p8443
aVunkempt
p8444
aVlicked
p8445
aVcockatoo
p8446
aVcomic
p8447
aVtangle
p8448
aVkiwi
p8449
aVtoronto
p8450
aVtarget
p8451
aVhike
p8452
aVmedley
p8453
aViron
p8454
aVinfront
p8455
aVbunkbed
p8456
aVforces
p8457
aVswims
p8458
aVcircles
p8459
aVspeedboats
p8460
aVextending
p8461
aVcircled
p8462
aVcorded
p8463
aVflops
p8464
aVfitted
p8465
aVchandelier
p8466
aVtoast
p8467
aVsewn
p8468
aVonboard
p8469
aVspeared
p8470
aVsteak
p8471
aVsteal
p8472
aVsteam
p8473
aVobserves
p8474
aVobserved
p8475
aVovergrown
p8476
aVfurnishings
p8477
aVreceived
p8478
aVill
p8479
aVreceives
p8480
aVreceiver
p8481
aS'#START#'
p8482
aVpeacefully
p8483
aVtough
p8484
aVspear
p8485
aVcharacter
p8486
aVspeak
p8487
aVengines
p8488
aVrefurbished
p8489
aVscarecrow
p8490
aVrelaxing
p8491
aVcatering
p8492
aVsticker
p8493
aVbrake
p8494
aVdescent
p8495
aVdescend
p8496
aVperimeter
p8497
aVplating
p8498
aVswell
p8499
aVwispy
p8500
aVhopping
p8501
aVdrip
p8502
aVcompartments
p8503
aVmamma
p8504
aVgoggles
p8505
aVupturned
p8506
aVphotographer
p8507
aVoccupants
p8508
aVphotographed
p8509
aVmayo
p8510
aVtheyre
p8511
aVorchid
p8512
aVhumor
p8513
aVfreestanding
p8514
aVtrophy
p8515
aVhorizon
p8516
aVsnowy
p8517
aVsnows
p8518
aVelderly
p8519
aVbraves
p8520
aVcrystal
p8521
aVunusually
p8522
aVumpire
p8523
aVwintry
p8524
aVdimly
p8525
aVdying
p8526
aVstake
p8527
aVshrine
p8528
aVholding
p8529
aVtugboat
p8530
aVdance
p8531
aVswitches
p8532
aVhovers
p8533
aVcouscous
p8534
aVbrown
p8535
aVboombox
p8536
aVbrownie
p8537
aVseemingly
p8538
aVvegas
p8539
aVtrouble
p8540
aVaggressively
p8541
aVschoolbus
p8542
aVguitars
p8543
aVsteeple
p8544
aVsidewalk
p8545
aVupper
p8546
aVbrave
p8547
aVprairie
p8548
aVassistance
p8549
aVsaluting
p8550
aVpeeled
p8551
aVpecks
p8552
aVgoldfish
p8553
aVpeeler
p8554
aVbuck
p8555
aVpatriotic
p8556
aVmarked
p8557
aVmarker
p8558
aVmarket
p8559
aVflavors
p8560
aVangels
p8561
aVcountertop
p8562
aVclub
p8563
aVenvelope
p8564
aVbowler
p8565
aVslogan
p8566
aVmouses
p8567
aVgrassy
p8568
aVpauses
p8569
aVnemo
p8570
aVposing
p8571
aVwrite
p8572
aVponies
p8573
aVsouthern
p8574
aVjousting
p8575
aVhotplate
p8576
aVlifting
p8577
aVdreads
p8578
aVtypical
p8579
aVcongregating
p8580
aVtending
p8581
aVcurly
p8582
aVcurls
p8583
aVartisan
p8584
aVhoses
p8585
aVidentically
p8586
aVdiscuss
p8587
aVdown
p8588
aVidyllic
p8589
aVjames
p8590
aVbacksplash
p8591
aVcliffs
p8592
aVsugary
p8593
aVshouldnt
p8594
aVshowroom
p8595
aVmarina
p8596
aVmarine
p8597
aVflying
p8598
aVshears
p8599
aVmountainside
p8600
aVyourself
p8601
aVtusks
p8602
aVthat
p8603
aVflowery
p8604
aVpontoons
p8605
aVthan
p8606
aVkarate
p8607
aVonline
p8608
aVbegin
p8609
aVlookers
p8610
aVexpertly
p8611
aVtooth
p8612
aVprofessional
p8613
aVfiling
p8614
aVtalbot
p8615
aVcrashing
p8616
aVbusily
p8617
aVtitle
p8618
aVpastrami
p8619
aVbracelets
p8620
aVfascinated
p8621
aVwhippet
p8622
aV3
p8623
aVskyscraper
p8624
aVwhipped
p8625
aVnotice
p8626
aVfliers
p8627
aVwheels
p8628
aVnearby
p8629
aVwreaths
p8630
aVlearning
p8631
aVolives
p8632
aVcycling
p8633
aVexternal
p8634
aVfoggy
p8635
aVcrumb
p8636
aVhandicapped
p8637
aVramp
p8638
aVstickers
p8639
aVgentlemen
p8640
aVhauls
p8641
aVsweeper
p8642
aVenjoyment
p8643
aVinvestigates
p8644
aVpatchwork
p8645
aVcharger
p8646
aVcharged
p8647
aVdancers
p8648
aVsweatpants
p8649
aVstaging
p8650
aVthinking
p8651
aVtrestle
p8652
aVtrinkets
p8653
aVearly
p8654
aVfryer
p8655
aVstreamers
p8656
aVceremonial
p8657
aVdealership
p8658
aVforks
p8659
aVbusiness
p8660
aVchefs
p8661
aVcourch
p8662
aVsniffs
p8663
aVstrainer
p8664
aVcomparison
p8665
aVgump
p8666
aVgondola
p8667
aVprocessor
p8668
aVyour
p8669
aVgrates
p8670
aVgrater
p8671
aVarea
p8672
aVcats
p8673
aVgrated
p8674
aVkichen
p8675
aVtoned
p8676
aVappliance
p8677
aVtones
p8678
aVscanner
p8679
aVincluding:
p8680
aVyou
p8681
aVrestraunt
p8682
aVbuilding
p8683
aVvines
p8684
aVembracing
p8685
aVmessy
p8686
aVcarpet
p8687
aVblueberries
p8688
aVicons
p8689
aVkneepads
p8690
aVselfies
p8691
aVbalancing
p8692
aVlaser
p8693
aVfence
p8694
aVcasual
p8695
aVdarkness
p8696
aVedited
p8697
aVtrunk
p8698
aVexceptionally
p8699
aVcreepy
p8700
aVdrawers
p8701
aVamount
p8702
aVuniquely
p8703
aVshuffle
p8704
aVcosmetic
p8705
aVtrained
p8706
aVattendant
p8707
aVautographs
p8708
aVthrown
p8709
aVscallions
p8710
aVrotini
p8711
aVledges
p8712
aVwoodsy
p8713
aVwigs
p8714
aVtried
p8715
aVtries
p8716
aVmalnourished
p8717
aVa
p8718
aVegg
p8719
aVhovering
p8720
aVreservoir
p8721
aVbullpen
p8722
aVdummies
p8723
aVactually
p8724
aVpeanuts
p8725
aVroomful
p8726
aVtowering
p8727
aVpayer
p8728
aVkayaking
p8729
aVbeyond
p8730
aVevent
p8731
aVfountain
p8732
aVexpansive
p8733
aVplungers
p8734
aVcontorts
p8735
aVterrible
p8736
aVbusinessmen
p8737
aVdaisy
p8738
aVmist
p8739
aVsplattered
p8740
aVpinned
p8741
aVfielder
p8742
aVbowed
p8743
aVbowel
p8744
aVgrocery
p8745
aVbride
p8746
aValongside
p8747
aVphilly
p8748
aVlid
p8749
aVscotland
p8750
aVlit
p8751
aVlip
p8752
aVsponsored
p8753
aVfridges
p8754
aVmobile
p8755
aVclear
p8756
aVouthouse
p8757
aVclean
p8758
aVflights
p8759
aVcircle
p8760
aVbasement
p8761
aVsweaters
p8762
aVx
p8763
aVthrowing
p8764
aVprobably
p8765
aVsailboard
p8766
aVboth
p8767
aVponys
p8768
aVheaded
p8769
aVwhatever
p8770
aVnaps
p8771
aVbuisness
p8772
aVcollectible
p8773
aVimac
p8774
aVwhile
p8775
aVfleet
p8776
aVanimated
p8777
aVlabeling
p8778
aVwildflowers
p8779
aVloosened
p8780
aVbow
p8781
aVbaseline
p8782
aVhallway
p8783
aVcleaning
p8784
aVyankees
p8785
aVroaster
p8786
aVlobsters
p8787
aVroasted
p8788
aVcemetery
p8789
aVradiator
p8790
aVpillar
p8791
aVtoyota
p8792
aVsaddled
p8793
aVperked
p8794
aVparade
p8795
aVmauve
p8796
aVfathers
p8797
aVsome
p8798
aVadded
p8799
aVsaddles
p8800
aVeating
p8801
aVbooklet
p8802
aVraspberry
p8803
aVreact
p8804
aVgnome
p8805
aVlockers
p8806
aVblock
p8807
aVoutcrop
p8808
aVleeks
p8809
aVhabitat
p8810
aVfrost
p8811
aVnewer
p8812
aVbranch
p8813
aVreel
p8814
aVpeopel
p8815
aVskull
p8816
aVwindows
p8817
aVmotorcyclers
p8818
aValmonds
p8819
aVcautiously
p8820
aVhalfpipe
p8821
aVnad
p8822
aVnap
p8823
aVelectrical
p8824
aVpandas
p8825
aVdraw
p8826
aVcrouching
p8827
aVlunging
p8828
aVwilliam
p8829
aVdrag
p8830
aVrested
p8831
aVdrab
p8832
aVstructure
p8833
aVouting
p8834
aVyoutube
p8835
aVpamphlets
p8836
aVbleacher
p8837
aVstones
p8838
aVbarbecue
p8839
aVoclock
p8840
aVbushels
p8841
aVtrolleys
p8842
aVfacebook
p8843
aVexits
p8844
aVbutton
p8845
aVinspection
p8846
aVplays
p8847
aVcell
p8848
aVpoles
p8849
aVpristine
p8850
aVshoreline
p8851
aVraspberries
p8852
aVaddresses
p8853
aVdanger
p8854
aVsinging
p8855
aVvehicle
p8856
aVexpressway
p8857
aVbecomes
p8858
aVcarvings
p8859
aVtangerine
p8860
aVsalad
p8861
aVride
p8862
aVcontrol
p8863
aVstemmed
p8864
aVcutlery
p8865
aVcraggy
p8866
aVsoggy
p8867
aVenclose
p8868
aVcruise
p8869
aVhelicopters
p8870
aVbroom
p8871
aVnotebooks
p8872
aVbrook
p8873
aVhim
p8874
aVsurrounds
p8875
aVsweets
p8876
aVfront
p8877
aVmasters
p8878
aVseniors
p8879
aVshowering
p8880
aVglobe
p8881
aVmeasure
p8882
aVgriaffe
p8883
aVmay
p8884
aVplayground
p8885
aVumbrella
p8886
aVwines
p8887
aVattending
p8888
aVprincess
p8889
aVflorida
p8890
aVstrapping
p8891
aVhousing
p8892
aVstump
p8893
aVquality
p8894
aVprivacy
p8895
aVbears
p8896
aVsquinting
p8897
aVman
p8898
aVtourists
p8899
aVbeard
p8900
aVexactly
p8901
aVbare
p8902
aVare
p8903
aVgrayish
p8904
aVrecessed
p8905
aVsundown
p8906
aVneed
p8907
aVbark
p8908
aVtabe
p8909
aVsings
p8910
aVmicrophone
p8911
aVable
p8912
aVpurchasing
p8913
aVarm
p8914
aVseasonings
p8915
aVkickstand
p8916
aVconnected
p8917
aVstereo
p8918
aVscrambles
p8919
aVeachother
p8920
aVupset
p8921
aVscrambled
p8922
aVnailed
p8923
aVimpression
p8924
aVemerging
p8925
aVindoor
p8926
aVsoldiers
p8927
aVcreamed
p8928
aVwinner
p8929
aVcreamer
p8930
aVemployee
p8931
aVdodge
p8932
aVmichigan
p8933
aVsipping
p8934
aVjoint
p8935
aVjoins
p8936
aVscrolling
p8937
aVdishing
p8938
aVmotorboat
p8939
aVcontain
p8940
aVhardwood
p8941
aVpitch
p8942
aVcomputer
p8943
aVpowder
p8944
aVstate
p8945
aVefficiency
p8946
aVgroup
p8947
aVaqua
p8948
aVspandex
p8949
aVpoem
p8950
aVbricked
p8951
aVallover
p8952
aVtreat
p8953
aVc
p8954
aVcorks
p8955
aVsmartphones
p8956
aVcoating
p8957
aVsustenance
p8958
aVballoon
p8959
aVbaord
p8960
aVeclectic
p8961
aVfireman
p8962
aVeffect
p8963
aVsurfboard
p8964
aVobstacles
p8965
aVsavannah
p8966
aVskill
p8967
aVbarefooted
p8968
aVample
p8969
aVcrushed
p8970
aVunseen
p8971
aVglazing
p8972
aVdoorways
p8973
aVtaping
p8974
aVmartin
p8975
aVshed
p8976
aVtwitter
p8977
aVfrancisco
p8978
aVwarmer
p8979
aVshes
p8980
aVkettle
p8981
aVcabbages
p8982
aVthats
p8983
aVintersections
p8984
aVprohibited
p8985
aVtorsos
p8986
aVstaked
p8987
aVcleans
p8988
aVtoppings
p8989
aVoverlook
p8990
aVdue
p8991
aVartists
p8992
aVdug
p8993
aVutility
p8994
aVhooding
p8995
aVmuseum
p8996
aVcricket
p8997
aVnut
p8998
aVtechnician
p8999
aVsigned
p9000
aVleathers
p9001
aVpiece
p9002
aVpenny
p9003
aVcontest
p9004
aVfencing
p9005
aVwestminster
p9006
aVrefreshments
p9007
aVportion
p9008
aVspouts
p9009
aVcaptain
p9010
aVsegments
p9011
aVpresents
p9012
aVteaching
p9013
aVupdated
p9014
aVguardrail
p9015
aVconnects
p9016
aVskills
p9017
aVconvenience
p9018
aVfarmhouse
p9019
aVforce
p9020
aVquilt
p9021
aVwarns
p9022
aVjapanese
p9023
aVcactus
p9024
aVeven
p9025
aVasia
p9026
aVlights
p9027
aVtips
p9028
aVever
p9029
aVactive
p9030
aVluther
p9031
aVtapes
p9032
aVtaped
p9033
aVeyebrows
p9034
aVdigitally
p9035
aVcampaign
p9036
aVlandscape
p9037
aVheadband
p9038
aVarmy
p9039
aVarms
p9040
aVcall
p9041
aVcalm
p9042
aVcalf
p9043
aVpeeping
p9044
aVcomposite
p9045
aVpecan
p9046
aVblindfold
p9047
aVshamrock
p9048
aVvodka
p9049
aVlaughs
p9050
aVsideline
p9051
aVrib
p9052
aVbonsai
p9053
aVbriefcase
p9054
aVundergoing
p9055
aVcuriosity
p9056
aVpurchase
p9057
aVlongingly
p9058
aVmaintain
p9059
aVwaited
p9060
aVdeco
p9061
aVdougnuts
p9062
aVblackened
p9063
aVbetter
p9064
aVdifferently
p9065
aVcarve
p9066
aVworkout
p9067
aVleaned
p9068
aVwent
p9069
aVrestricted
p9070
aVsparkly
p9071
aVcontent
p9072
aVturning
p9073
aVshaggy
p9074
aVstarts
p9075
aVswiping
p9076
aVgrade
p9077
aVspinach
p9078
aVswaddled
p9079
aVtwisted
p9080
aVboating
p9081
aVsomewhat
p9082
aVpeculiar
p9083
aVgiraffees
p9084
aVsilly
p9085
aVhoody
p9086
aVchess
p9087
aVpanties
p9088
aVtye
p9089
aVnighttime
p9090
aVdefinitely
p9091
aVending
p9092
aVattempts
p9093
aVstepping
p9094
aVscrubbing
p9095
aVwearing
p9096
aVcolorful
p9097
aVbat
p9098
aVbar
p9099
aVsailing
p9100
aVbay
p9101
aVbag
p9102
aVbad
p9103
aVban
p9104
aVsaid
p9105
aVsail
p9106
aVshaved
p9107
aVolympics
p9108
aVshaves
p9109
aVvitamin
p9110
aVcobble
p9111
aVollies
p9112
aVunenthused
p9113
aVthree
p9114
aVthrew
p9115
aVmushroom
p9116
aVtapping
p9117
aVreddish
p9118
aVaeroplane
p9119
aVbalance
p9120
aVstudy
p9121
aVmexico
p9122
aVsushi
p9123
aVseattle
p9124
aVgrown
p9125
aVpinning
p9126
aVtucking
p9127
aVvegetable
p9128
aVgrows
p9129
aVsmokey
p9130
aVsmokes
p9131
aVsmoker
p9132
aVsmoked
p9133
aVleft
p9134
aVjust
p9135
aVservicemen
p9136
aVchives
p9137
aVbackground
p9138
aVvanity
p9139
aVmanual
p9140
aVprepping
p9141
aVdense
p9142
aVfloaters
p9143
aVarguing
p9144
aVtartar
p9145
aVbold
p9146
aVbolt
p9147
aVsuper
p9148
aVindians
p9149
aVcommuters
p9150
aVlies
p9151
aVweathered
p9152
aVoffering
p9153
aVstaged
p9154
aVblueberry
p9155
aVtoss
p9156
aVcovers
p9157
aVfloating
p9158
aVvista
p9159
aVtossing
p9160
aVhanded
p9161
aVsling
p9162
aVpizzas
p9163
aVjones
p9164
aVdaily
p9165
aVthemed
p9166
aVthemes
p9167
aVmild
p9168
aVmile
p9169
aVmill
p9170
aVabundant
p9171
aVmilk
p9172
aVtechnique
p9173
aVdisgusting
p9174
aVdim
p9175
aVnectar
p9176
aVlimes
p9177
aVdid
p9178
aVdie
p9179
aVdig
p9180
aVbikers
p9181
aVbedside
p9182
aVoverlaid
p9183
aVvilla
p9184
aVseasoning
p9185
aVvandalized
p9186
aVbookshelves
p9187
aVfrench
p9188
aVwait
p9189
aValto
p9190
aVcanadian
p9191
aVuseful
p9192
aVlamppost
p9193
aVfrance
p9194
aVcreamy
p9195
aVcreams
p9196
aVcheckout
p9197
aVsharing
p9198
aVobelisk
p9199
aVphillies
p9200
aVdowntown
p9201
aVfly
p9202
aVdeformed
p9203
aVavoiding
p9204
aVsoul
p9205
aVsoup
p9206
aVsour
p9207
aVarrive
p9208
aVbites
p9209
aVclaim
p9210
aVdrawer
p9211
aVnyc
p9212
aVstaying
p9213
aVaccessory
p9214
aV6th
p9215
aVq
p9216
aVswitch
p9217
aVafrican
p9218
aVthank
p9219
aVyorkshire
p9220
aVmaid
p9221
aVcoaching
p9222
aVmail
p9223
aVmain
p9224
aVviews
p9225
aVgirl
p9226
aVmorning
p9227
aVliving
p9228
aVcorrect
p9229
aVpumping
p9230
aVcalifornia
p9231
aVfribee
p9232
aVpepperoni
p9233
aVnativity
p9234
aVamericans
p9235
aVslept
p9236
aVescort
p9237
aVseat
p9238
aVcocktails
p9239
aVprotected
p9240
aVoccupies
p9241
aVdash
p9242
aVwinding
p9243
aVoccupied
p9244
aVanswering
p9245
aVchannel
p9246
aVwilted
p9247
aVnormal
p9248
aVtrack
p9249
aVespecially
p9250
aVlabel
p9251
aVcheeseburger
p9252
aVdesignated
p9253
aVkeyboards
p9254
aVmedian
p9255
aVfinishing
p9256
aVmilling
p9257
aVcologne
p9258
aVpebble
p9259
aVgeometric
p9260
aVparent
p9261
aVpained
p9262
aVpatrons
p9263
aVstretches
p9264
aVmaintained
p9265
aVstretched
p9266
aVmare
p9267
aVunopened
p9268
aVmark
p9269
aVmary
p9270
aVshopping
p9271
aVstacked
p9272
aVturtles
p9273
aVwarning
p9274
aVbathrooms
p9275
aVcluster
p9276
aVdangerously
p9277
aVbags
p9278
aVdifferent
p9279
aVpat
p9280
aVpaw
p9281
aVpay
p9282
aVpac
p9283
aVpad
p9284
aV1900s
p9285
aVstruggling
p9286
aVpan
p9287
aVexhaust
p9288
aVseagulls
p9289
aVrunning
p9290
aVstairwell
p9291
aVspoonful
p9292
aVbottle
p9293
aVgates
p9294
aVmcdonald
p9295
aVbeagle
p9296
aVgrating
p9297
aVextensive
p9298
aVpegs
p9299
aVmop
p9300
aVmom
p9301
aVrailroad
p9302
aVaiming
p9303
aVlightning
p9304
aVlaughing
p9305
aVmeanders
p9306
aVorganizing
p9307
aVexpressing
p9308
aVmoderate
p9309
aVmeasuring
p9310
aVairways
p9311
aVclawfoot
p9312
aVconducting
p9313
aVpractical
p9314
aVairline
p9315
aVroam
p9316
aVroad
p9317
aVquietly
p9318
aVwhites
p9319
aVspreading
p9320
aVdowned
p9321
aVtreys
p9322
aVstyling
p9323
aVlions
p9324
aVchats
p9325
aVtrey
p9326
aVtripod
p9327
aVwalkway
p9328
aVaffection
p9329
aVfellow
p9330
aVhound
p9331
aVcables
p9332
aVpensive
p9333
aVwaxing
p9334
aVthames
p9335
aVrollerblading
p9336
aVoutfield
p9337
aVawkwardly
p9338
aVunload
p9339
aVcasts
p9340
aVdisassembled
p9341
aVchildren
p9342
aVunripened
p9343
aVparcel
p9344
aVcelebrity
p9345
aVearbuds
p9346
aVneighborhood
p9347
aVhyrdant
p9348
aVfurther
p9349
aVribbon
p9350
aVdial
p9351
aVplush
p9352
aVmovement
p9353
aVtattoos
p9354
aVoars
p9355
aVwrangling
p9356
aVpuddles
p9357
aVranger
p9358
aVcylindrical
p9359
aVbeachside
p9360
aVsunning
p9361
aVchipped
p9362
aVstretching
p9363
aVstorefront
p9364
aVpeering
p9365
aVbuses
p9366
aVclapping
p9367
aVdistinct
p9368
aVdestination
p9369
aVdiamond
p9370
aVvarying
p9371
aVnineteen
p9372
aVgoblets
p9373
aVshark
p9374
aVhamburger
p9375
aVsharp
p9376
aVrye
p9377
aVfrilly
p9378
aVresponse
p9379
aVbleak
p9380
aVorchard
p9381
aVeats
p9382
aVbathed
p9383
aVbathes
p9384
aVinfant
p9385
aVrounded
p9386
aVpossessions
p9387
aVcrawls
p9388
aVlookout
p9389
aVgood
p9390
aVdetour
p9391
aVeasily
p9392
aVpregnant
p9393
aVporta
p9394
aVbiscuits
p9395
aVhouse
p9396
aVmonks
p9397
aVconnect
p9398
aVbackpacks
p9399
aVflower
p9400
aVacting
p9401
aVsquished
p9402
aVbulls
p9403
aVgeared
p9404
aVterminals
p9405
aVpilots
p9406
aVcups
p9407
aV5th
p9408
aVstatement
p9409
aVmuscles
p9410
aVpeaked
p9411
aVgotten
p9412
aVyouth
p9413
aVages
p9414
aVaged
p9415
aVfading
p9416
aVbackseat
p9417
aVcardigan
p9418
aVbuilt
p9419
aVdancing
p9420
aVbuild
p9421
aVflute
p9422
aVtarmack
p9423
aVtarmacs
p9424
aVrefrigerator
p9425
aVchested
p9426
aVpomegranates
p9427
aVjoining
p9428
aVhugging
p9429
aVperches
p9430
aVperched
p9431
aVfine
p9432
aVfind
p9433
aVgiant
p9434
aVdividing
p9435
aVboulder
p9436
aVfueling
p9437
aVvine
p9438
aV11th
p9439
aVvisiting
p9440
aVplease
p9441
aVsmallest
p9442
aVskyteam
p9443
aVmarilyn
p9444
aVcubes
p9445
aVtipping
p9446
aVannual
p9447
aVpavers
p9448
aVcubed
p9449
aVafar
p9450
aVswirled
p9451
aVconsume
p9452
aVraise
p9453
aVtanding
p9454
aVmeeting
p9455
aVsolid
p9456
aVitself
p9457
aVhydrants
p9458
aVitaly
p9459
aVewe
p9460
aVpreforms
p9461
aVleopard
p9462
aVflurry
p9463
aVwheelchairs
p9464
aVbeanie
p9465
aVspices
p9466
aVentre
p9467
aVflags
p9468
aVorganization
p9469
aVeyeglasses
p9470
aVjumpsuit
p9471
aVwayland
p9472
aVkites
p9473
aVsnap
p9474
aVlilacs
p9475
aVbin
p9476
aVoverhanging
p9477
aVbig
p9478
aVbid
p9479
aVbib
p9480
aVbit
p9481
aVfollows
p9482
aVgoogle
p9483
aVmagnificent
p9484
aVgoogly
p9485
aVscale
p9486
aVsaab
p9487
aVcostumes
p9488
aVlounges
p9489
aVcostumed
p9490
aVgraduation
p9491
aVpiled
p9492
aVcatnip
p9493
aVdaisies
p9494
aVdownhill
p9495
aVhopes
p9496
aVmigrating
p9497
aVcalico
p9498
aVdirected
p9499
aVrestaraunt
p9500
aVclips
p9501
aVsort
p9502
aVcabs
p9503
aVdragging
p9504
aVannouncing
p9505
aVliners
p9506
aVlens
p9507
aVdesert
p9508
aVmantel
p9509
aVflowerpot
p9510
aV2009
p9511
aVrusting
p9512
aVintricate
p9513
aVclementines
p9514
aVmower
p9515
aVglases
p9516
aVblaze
p9517
aVfrisbees
p9518
aVmowed
p9519
aVskiies
p9520
aVingredient
p9521
aVarrange
p9522
aVshock
p9523
aVrearing
p9524
aVbleeding
p9525
aVuncomfortable
p9526
aVchicago
p9527
aVbody
p9528
aV50th
p9529
aVsink
p9530
aVothers
p9531
aVsing
p9532
aVextreme
p9533
aVdispensers
p9534
aValaska
p9535
aVpresidents
p9536
aVlimo
p9537
aVlime
p9538
aVtaxiing
p9539
aVsheers
p9540
aVcookware
p9541
aVbilled
p9542
aVtearing
p9543
aVtunnel
p9544
aVunpacking
p9545
aVsanding
p9546
aVbones
p9547
aVtan
p9548
aVnative
p9549
aVmix
p9550
aVattachment
p9551
aVonlookers
p9552
aVwatery
p9553
aVrailings
p9554
aVwaters
p9555
aVcollection
p9556
aVcuddling
p9557
aVdrape
p9558
aVlines
p9559
aVliner
p9560
aVlinen
p9561
aVchief
p9562
aVlined
p9563
aVbridges
p9564
aVsquatting
p9565
aVdad
p9566
aVjunction
p9567
aVdam
p9568
aVcutting
p9569
aVday
p9570
aVstunts
p9571
aVlie
p9572
aVoriental
p9573
aVlecture
p9574
aVwindsurfing
p9575
aVhazard
p9576
aVturbans
p9577
aVbarriers
p9578
aVwaitress
p9579
aVpuppet
p9580
aVraggedy
p9581
aVsadly
p9582
aVlaps
p9583
aVchased
p9584
aVlapt
p9585
aVgear
p9586
aVipad
p9587
aVloved
p9588
aVpretends
p9589
aVnuzzling
p9590
aVfrizbe
p9591
aVcurves
p9592
aVcurved
p9593
aVdemonstration
p9594
aVsidecar
p9595
aVsayings
p9596
aVchaise
p9597
aVpausing
p9598
aVmasts
p9599
aVquilted
p9600
aVgather
p9601
aVselection
p9602
aVkite
p9603
aVtext
p9604
aVkits
p9605
aVphotographs
p9606
aVbeat
p9607
aVphotography
p9608
aVstripes
p9609
aVbear
p9610
aVbeam
p9611
aVbean
p9612
aVbeak
p9613
aVbead
p9614
aVstriped
p9615
aVcalling
p9616
aVoutfielder
p9617
aVwetland
p9618
aVclearing
p9619
aVroutine
p9620
aVprogress
p9621
aVtermite
p9622
aVboulders
p9623
aVhighland
p9624
aVotherwise
p9625
aVvent
p9626
aVmonstrosity
p9627
aVangled
p9628
aVinspecting
p9629
aVridden
p9630
aVangles
p9631
aVhomer
p9632
aVhomes
p9633
aVplaid
p9634
aVplain
p9635
aVhomey
p9636
aVappearance
p9637
aVhoagie
p9638
aVcereals
p9639
aVhelped
p9640
aVblooms
p9641
aVinjured
p9642
aVnovels
p9643
aVwhiile
p9644
aVion
p9645
aVthought
p9646
aVsets
p9647
aVposition
p9648
aVdrivers
p9649
aVbarking
p9650
aVproximity
p9651
aVexecutive
p9652
aVdomestic
p9653
aVcrossroad
p9654
aVrumpled
p9655
aVinviting
p9656
aVhaunches
p9657
aVsofa
p9658
aVsoft
p9659
aVheel
p9660
aValive
p9661
aVswimsuits
p9662
aVstuffs
p9663
aVhighlighting
p9664
aVcorpse
p9665
aVchains
p9666
aVtrap
p9667
aVnoise
p9668
aVhost
p9669
aVbeaked
p9670
aVchildrens
p9671
aVzooms
p9672
aVguard
p9673
aVcustard
p9674
aVadolescent
p9675
aVbrides
p9676
aVawarded
p9677
aVmaze
p9678
aVivory
p9679
aVbobble
p9680
aVbrand
p9681
aVediting
p9682
aVglory
p9683
aVdangerous
p9684
aVj
p9685
aVcondiment
p9686
aVsupreme
p9687
aVpin
p9688
aVhandset
p9689
aVpic
p9690
aVpie
p9691
aVpig
p9692
aVbrocclie
p9693
aVshooting
p9694
aVpit
p9695
aVsurreal
p9696
aVsewer
p9697
aVcookbook
p9698
aVassembles
p9699
aVsleek
p9700
aVdoubledecker
p9701
aVsleep
p9702
aVhating
p9703
aVassembled
p9704
aVdinging
p9705
aVpatches
p9706
aVparis
p9707
aVmerchant
p9708
aVrise
p9709
aVleggings
p9710
aVfireplace
p9711
aVparrot
p9712
aVvenue
p9713
aVguiding
p9714
aVenclosing
p9715
aVsmoky
p9716
aVsurrounding
p9717
aVchrist
p9718
aVlampshade
p9719
aVcoasters
p9720
aVmints
p9721
aVkicked
p9722
aVramps
p9723
aVsocialize
p9724
aVchanged
p9725
aVjogging
p9726
aVchanges
p9727
aVyork
p9728
aVpunching
p9729
aVactions
p9730
aVscaffolding
p9731
aVchargers
p9732
aVteddybear
p9733
aVsexy
p9734
aVbrushy
p9735
aVphone
p9736
aVpouch
p9737
aVtampa
p9738
aVmust
p9739
aVdecorative
p9740
aVinscription
p9741
aVwalkways
p9742
aVbunk
p9743
aVbuns
p9744
aVbunt
p9745
aVadjacent
p9746
aVgate
p9747
aVpokes
p9748
aVmouths
p9749
aVpoked
p9750
aVinterior
p9751
aVsprout
p9752
aVover
p9753
aVsickly
p9754
aVmallard
p9755
aVjacuzzi
p9756
aVexecutes
p9757
aVoven
p9758
aVwriting
p9759
aVdestroyed
p9760
aVhanger
p9761
aVcloths
p9762
aVcelebrating
p9763
aVhanged
p9764
aVclothe
p9765
aVdriving
p9766
aVhaired
p9767
aVarizona
p9768
aVfree
p9769
aVformation
p9770
aVevil
p9771
aVsandwhiches
p9772
aVindustrial
p9773
aVgazelle
p9774
aVgalley
p9775
aVscissors
p9776
aVguinness
p9777
aVwildly
p9778
aVcentered
p9779
aVkept
p9780
aVrag
p9781
aVrad
p9782
aVhammertime
p9783
aVran
p9784
aVram
p9785
aVraw
p9786
aVrat
p9787
aVrelatively
p9788
aVisolated
p9789
aVrides
p9790
aVrider
p9791
aVcookout
p9792
aVglob
p9793
aVglow
p9794
aVpartition
p9795
aVmetal
p9796
aVfreeway
p9797
aVdesktops
p9798
aVqueen
p9799
aVpops
p9800
aVmingle
p9801
aVhighchair
p9802
aVfabrics
p9803
aVrowing
p9804
aVlicking
p9805
aV34th
p9806
aVunpainted
p9807
aVtoothbrush
p9808
aVfaced
p9809
aVjelly
p9810
aVfacet
p9811
aVplayers
p9812
aVfaces
p9813
aVjello
p9814
aVbetting
p9815
aVcomical
p9816
aVbathroom
p9817
aVblower
p9818
aVconfident
p9819
aVcontainers
p9820
aVaffixed
p9821
aVcraft
p9822
aVrowers
p9823
aVcatch
p9824
aVteapot
p9825
aVcracker
p9826
aVcracked
p9827
aVcharacters
p9828
aVworkings
p9829
aVcycle
p9830
aVhearth
p9831
aVcharlie
p9832
aVhearty
p9833
aVhearts
p9834
aVlaptop
p9835
aVtransporting
p9836
aVfurry
p9837
aVcasting
p9838
aVvulture
p9839
aVadvanced
p9840
aVadvertise
p9841
aVxbox
p9842
aVplayroom
p9843
aVcurry
p9844
aVpresence
p9845
aVpuzzle
p9846
aVcarafe
p9847
aVfinely
p9848
aVcoastal
p9849
aVrounds
p9850
aVparasails
p9851
aVremoves
p9852
aVremolded
p9853
aVsolar
p9854
aVremoved
p9855
aVdollhouse
p9856
aVtrim
p9857
aVtrio
p9858
aVtrip
p9859
aVconstructed
p9860
aVtip
p9861
aVtim
p9862
aVtie
p9863
aVdepot
p9864
aVyounger
p9865
aVlonger
p9866
aVserious
p9867
aVstacks
p9868
aVprotest
p9869
aVessentials
p9870
aVmelon
p9871
aVartwork
p9872
aVtortillas
p9873
aVpoliceman
p9874
aVbrother
p9875
aVquick
p9876
aVdrinks
p9877
aVunripe
p9878
aVpatrols
p9879
aVwater
p9880
aVbaseball
p9881
aVmugs
p9882
aVbeanbag
p9883
aVfrothy
p9884
aVmemory
p9885
aVaustralian
p9886
aVsmeared
p9887
aVconductor
p9888
aVclicking
p9889
aValtar
p9890
aVbeers
p9891
aVcollision
p9892
aVmodified
p9893
aVferry
p9894
aVnewspapers
p9895
aVstreak
p9896
aVstream
p9897
aVtinted
p9898
aVwiimote
p9899
aVsecured
p9900
aVcocktail
p9901
aVboards
p9902
aVfloral
p9903
aVclassroom
p9904
aVbranches
p9905
aVones
p9906
aVlagoon
p9907
aVshinning
p9908
aVacts
p9909
aVwords
p9910
aVducklings
p9911
aVmotions
p9912
aVredheaded
p9913
aVappetizers
p9914
aVlorry
p9915
aVswans
p9916
aVwhirlpool
p9917
aVmoms
p9918
aVcorners
p9919
aVrealistic
p9920
aVpersian
p9921
aVsunrise
p9922
aVfactory
p9923
aVruck
p9924
aVmaneuver
p9925
aVattended
p9926
aVhula
p9927
aVbolts
p9928
aVhull
p9929
aVmotion
p9930
aVpelican
p9931
aVgeorge
p9932
aVmolded
p9933
aVplastic
p9934
aVwhite
p9935
aVexploring
p9936
aVseason
p9937
aVwide
p9938
aVchugs
p9939
aVtarts
p9940
aVtanning
p9941
aVmoutains
p9942
aVsilhouette
p9943
aVmultiple
p9944
aVboiling
p9945
aVpencils
p9946
aVseafood
p9947
aVcuddles
p9948
aVsenior
p9949
aVcuddled
p9950
aVquantity
p9951
aVslope
p9952
aVskillets
p9953
aVwood
p9954
aVwool
p9955
aVlighted
p9956
aVviewpoint
p9957
aVlighter
p9958
aVdye
p9959
aValuminum
p9960
aVbison
p9961
aVarchitecturally
p9962
aVparking
p9963
aVways
p9964
aVreview
p9965
aVspoons
p9966
aVarrival
p9967
aVfiddling
p9968
aVarial
p9969
aVcities
p9970
aVcome
p9971
aVpostage
p9972
aVpakistan
p9973
aVbroccolli
p9974
aVbizarre
p9975
aVraring
p9976
aVpeaceful
p9977
aVabstract
p9978
aVattentive
p9979
aVpesto
p9980
aVonesie
p9981
aVworshiping
p9982
aVtwigs
p9983
aVshops
p9984
aVtelephone
p9985
aVvivid
p9986
aVlocking
p9987
aVbows
p9988
aVmacaroni
p9989
aVisle
p9990
aVbarefoot
p9991
aVscreenshot
p9992
aVbarges
p9993
aVdrives
p9994
aVdriven
p9995
aVcanister
p9996
aVcanopy
p9997
aVflakes
p9998
aVcomponents
p9999
aVfoyer
p10000
aVdesolate
p10001
aVcaptures
p10002
aVkilt
p10003
aVlavish
p10004
aVviolent
p10005
aVkill
p10006
aVkiln
p10007
aVkneeling
p10008
aVblow
p10009
aVsamples
p10010
aVstyles
p10011
aVfridge
p10012
aVstyled
p10013
aVoddly
p10014
aVtable
p10015
aVintact
p10016
aVslice
p10017
aVsevered
p10018
aVinspect
p10019
aVracehorses
p10020
aVcomforters
p10021
aVferris
p10022
aVvalley
p10023
aVfish
p10024
aVcabinet
p10025
aVtoilet
p10026
aVtoiler
p10027
aVtoiled
p10028
aVbritain
p10029
aVtrundle
p10030
aVswords
p10031
aVrubber
p10032
aV5
p10033
aVtrash
p10034
aVseparate
p10035
aVwhiskers
p10036
aVcove
p10037
aVberet
p10038
aVarchitecture
p10039
aVcalls
p10040
aVpeeks
p10041
aVlace
p10042
aVlack
p10043
aVexecuting
p10044
aVcornfield
p10045
aVlacy
p10046
aVlining
p10047
aVsparkling
p10048
aVsiblings
p10049
aVsong
p10050
aVfar
p10051
aVgrinds
p10052
aVfat
p10053
aVprint
p10054
aVsons
p10055
aVgreets
p10056
aVsony
p10057
aVticket
p10058
aVand
p10059
aVentourage
p10060
aVforeground
p10061
aVfunctioning
p10062
aVriderless
p10063
aVanniversary
p10064
aVobserving
p10065
aVthrift
p10066
aVhandlers
p10067
aVsiamese
p10068
aVmallet
p10069
aVallows
p10070
aVcucumbers
p10071
aVminiature
p10072
aVappliances
p10073
aVsmal
p10074
aVbundle
p10075
aVforcefully
p10076
aVbranded
p10077
aVladybug
p10078
aVgrabbing
p10079
aVcrested
p10080
aVstethoscope
p10081
aVstick
p10082
aVberth
p10083
aVchallenging
p10084
aVsunscreen
p10085
aVprotects
p10086
aVurinals
p10087
aVbackpacking
p10088
aVkhakis
p10089
aVspeeding
p10090
aVsandwich
p10091
aVreflect
p10092
aVvegan
p10093
aVnonchalantly
p10094
aVdeparture
p10095
aVgauges
p10096
aVcross
p10097
aVdisabled
p10098
aVreturn
p10099
aVclippers
p10100
aVparasurfer
p10101
aVcigarettes
p10102
aVcubicles
p10103
aVtankless
p10104
aVcobblestones
p10105
aVjetway
p10106
aVpirates
p10107
aVfixture
p10108
aVdugout
p10109
aVcombed
p10110
aVthread
p10111
aVrollerblades
p10112
aVfancy
p10113
aVspeedometer
p10114
aVpasses
p10115
aVscript
p10116
aVinteract
p10117
aVpassed
p10118
aVsyrup
p10119
aVgleefully
p10120
aVoption
p10121
aVdouble
p10122
aVstall
p10123
aVstalk
p10124
aVcleaner
p10125
aVdecadent
p10126
aValike
p10127
aVcleaned
p10128
aVsquints
p10129
aVremodel
p10130
aVsandwiched
p10131
aVcropped
p10132
aVsandwiches
p10133
aVreach
p10134
aVdoggie
p10135
aVloveseat
p10136
aVunwrapped
p10137
aVfont
p10138
aVhip
p10139
aVhis
p10140
aVhit
p10141
aVhil
p10142
aVbanquet
p10143
aVcartoons
p10144
aVart
p10145
aVdump
p10146
aVarc
p10147
aVdumb
p10148
aVbard
p10149
aVcleverly
p10150
aVbarn
p10151
aVlearns
p10152
aVglistening
p10153
aVdistinctive
p10154
aVnutella
p10155
aVunpaved
p10156
aVdrooping
p10157
aVvarious
p10158
aVplywood
p10159
aVpaisley
p10160
aVrapid
p10161
aVorphanage
p10162
aVblazer
p10163
aVfinds
p10164
aVsuspenders
p10165
aVsteeples
p10166
aVwhos
p10167
aVwhom
p10168
aVorioles
p10169
aVwhoa
p10170
aV1950s
p10171
aVmoustache
p10172
aVengineers
p10173
aVknob
p10174
aVrip
p10175
aVrim
p10176
aVlodged
p10177
aVrig
p10178
aVcurrents
p10179
aVpropping
p10180
aVspears
p10181
aVnegotiate
p10182
aVmoving
p10183
aVnoodle
p10184
aVedge
p10185
aVhotdog
p10186
aVsittin
p10187
aVfremont
p10188
aVsharpener
p10189
aVseperate
p10190
aVlittel
p10191
aVlitter
p10192
aVmarmalade
p10193
aVnosing
p10194
aVprop
p10195
aVprom
p10196
aVchars
p10197
aVintense
p10198
aVcompleting
p10199
aVstitched
p10200
aViwth
p10201
aVamidst
p10202
aVskewers
p10203
aVupright
p10204
aVcrane
p10205
aVcalled
p10206
aVdill
p10207
aVsoars
p10208
aVgrouped
p10209
aVwarplane
p10210
aVscroll
p10211
aVmardi
p10212
aVmagnifying
p10213
aVcupboards
p10214
aVfenced
p10215
aVsqueezing
p10216
aVfences
p10217
aVinstructional
p10218
aVwishes
p10219
aVnotes
p10220
aVprocession
p10221
aVmanipulating
p10222
aVwaiting
p10223
aVattire
p10224
aVcyclist
p10225
aVmetro
p10226
aVadjusts
p10227
aVbreeds
p10228
aVinitials
p10229
aVshovel
p10230
aVapple
p10231
aVshoved
p10232
aVdedicated
p10233
aVmotor
p10234
aViced
p10235
aVporch
p10236
aVrabbit
p10237
aVentwined
p10238
aVwomen
p10239
aVpaused
p10240
aVwtih
p10241
aVcolumn
p10242
aVbiscuit
p10243
aVtap
p10244
aVtar
p10245
aVtax
p10246
aVtag
p10247
aVtab
p10248
aVonions
p10249
aVpure
p10250
aVhurdles
p10251
aVethnic
p10252
aVfootpath
p10253
aVsculptures
p10254
aVwwii
p10255
aVcrawling
p10256
aVunderwater
p10257
aVinlet
p10258
aVchoose
p10259
aVcovered
p10260
aVbye
p10261
aVcontrail
p10262
aVcrash
p10263
aVflour
p10264
aVpractice
p10265
aVtram
p10266
aVblacktop
p10267
aVtray
p10268
aVsectional
p10269
aVparasailing
p10270
aVgrits
p10271
aVdive
p10272
aVrowboat
p10273
aVdumpster
p10274
aVbarns
p10275
aVconversation
p10276
aVdestinations
p10277
aVsucculents
p10278
aVmyspace
p10279
aVaccent
p10280
aVheadbands
p10281
aVpowdered
p10282
aVsculpture
p10283
aVpealed
p10284
aVreaches
p10285
aVafraid
p10286
aVoozing
p10287
aVbagel
p10288
aVdivers
p10289
aVcentre
p10290
aVtolit
p10291
aVbandanna
p10292
aVseaweed
p10293
aVsuperimposed
p10294
aVchicken
p10295
aVthousands
p10296
aVmouthful
p10297
aVgenerations
p10298
aVview
p10299
aVturbulent
p10300
aVviolet
p10301
aVcloser
p10302
aVcloses
p10303
aVgliders
p10304
aVcloset
p10305
aVrecord
p10306
aVclosed
p10307
aVpants
p10308
aVbeverages
p10309
aVhuts
p10310
aVtiers
p10311
aVgrain
p10312
aVclogged
p10313
aVsafely
p10314
aVshoving
p10315
aVreindeer
p10316
aVbbq
p10317
aVplaystation
p10318
aVgraveled
p10319
aVreadied
p10320
aVvanilla
p10321
aVchoices
p10322
aVwill
p10323
aVreadies
p10324
aVwild
p10325
aVwile
p10326
aVvintage
p10327
aVheadlight
p10328
aVelbows
p10329
aVattentively
p10330
aVunpacked
p10331
aVenglish
p10332
aVrocker
p10333
aVrocket
p10334
aVcakes
p10335
aVsky
p10336
aVski
p10337
aVidentical
p10338
aVsoccerball
p10339
aVprotesters
p10340
aVknow
p10341
aVknot
p10342
aVbecause
p10343
aVshabby
p10344
aVsequence
p10345
aVsearching
p10346
aVempire
p10347
aVleaf
p10348
aVlead
p10349
aVleak
p10350
aVlean
p10351
aVleap
p10352
aVleader
p10353
aVmitt
p10354
aVmurdered
p10355
aVslug
p10356
aVincline
p10357
aVgetting
p10358
aVspilled
p10359
aVshipping
p10360
aVsurge
p10361
aVheadphone
p10362
aVbrush
p10363
aVbratwurst
p10364
aVgnawing
p10365
aVboot
p10366
aVbook
p10367
aVboom
p10368
aVkerouac
p10369
aVwheelers
p10370
aVillegally
p10371
aVsandwhich
p10372
aVrotting
p10373
a.